(dp0
S'52282'
p1
S'indian coffee house'
p2
sS'58646'
p3
S'sri laxmi venkatesh coffee bar'
p4
sS'18278230'
p5
S'kopper kadai'
p6
sS'52098'
p7
S"brahmin's coffee bar"
p8
sS'58698'
p9
S'mamagoto'
p10
sS'18375545'
p11
S"chetty's coffee"
p12
sS'61111'
p13
S'milano ice cream'
p14
sS'52459'
p15
S'shri sagar'
p16
sS'55642'
p17
S'mr. idli'
p18
sS'58243'
p19
S'tim tai'
p20
sS'58576'
p21
S'taaza thindi'
p22
sS'58786'
p23
S'kesariya'
p24
sS'51065'
p25
S'vidyarthi bhavan'
p26
sS'57141'
p27
S"kapoor's cafe"
p28
sS'52228'
p29
S'punjab grill'
p30
sS'51490'
p31
S'dal tadkaa'
p32
sS'58818'
p33
S'belgyum'
p34
s.