(dp0
S'52282'
p1
(S'3.6'
p2
(lp3
(S'hot coffee'
p4
S'24'
p5
tp6
a(S'cold coffee'
p7
S'47'
p8
tp9
a(S'lemon juice'
p10
S'20'
p11
tp12
a(S'rose milk'
p13
S'47'
p14
tp15
a(S'hot milk'
p16
S'26'
p17
tp18
a(S'idly'
p19
S'20'
p20
tp21
a(S'vada'
p22
S'20'
p23
tp24
a(S'potato finger chips'
p25
S'20'
p26
tp27
a(S'vegetable cutlet'
p28
S'40'
p29
tp30
a(S'masala dosa'
p31
S'40'
p32
tp33
a(S'plain dosa'
p34
S'35'
p35
tp36
a(S'bread & butter'
p37
S'21'
p38
tp39
a(S'bread toast'
p40
S'23'
p41
tp42
a(S'bread toast jam'
p43
S'28'
p44
tp45
a(S'bread butter jam'
p46
S'27'
p47
tp48
a(S'mutton cutlet'
p49
S'55'
p50
tp51
a(S'tomato sandwitch'
p52
S'40'
p53
tp54
a(S'cucumber sandwitch'
p55
S'40'
p56
tp57
a(S'egg sandwitch'
p58
S'43'
p59
tp60
a(S'omlette 2 eggs'
p61
S'35'
p62
tp63
a(S'fried egg 2 eggs'
p64
S'35'
p65
tp66
a(S'tomato mixed omlette'
p67
S'40'
p68
tp69
a(S'omlette with chips'
p70
S'40'
p71
tp72
a(S'tomato omlette with chips'
p73
S'40'
p74
tp75
a(S'scrambeled egg toast'
p76
S'65'
p77
tp78
a(S'omlette 1 egg'
p79
S'20'
p80
tp81
a(S'boiled egg 1 egg'
p82
S'10'
p83
tp84
a(S'kesari bath'
p85
S'20'
p86
tp87
a(S'kara bath'
p88
S'20'
p89
tp90
a(S'pakoda'
p91
S'20'
p92
tp93
a(S'rice bath'
p94
S'20'
p95
tp96
a(S'mini meals'
p97
S'30'
p98
tp99
a(S'special meals'
p100
S'50'
p101
tp102
a(S'chappathi'
p103
S'30'
p104
tp105
atp106
sS'58646'
p107
(S'4.4'
p108
(lp109
(S'idly'
p110
S'24'
p111
tp112
a(S'vada'
p113
S'20'
p114
tp115
a(S'kesari bath'
p116
S'20'
p117
tp118
a(S'khara bath'
p119
S'20'
p120
tp121
a(S'chow chow bath'
p122
S'40'
p123
tp124
a(S'masala dosa'
p125
S'35'
p126
tp127
a(S'set dosa '
p128
S'35'
p129
tp130
a(S'rava idly'
p131
S'25'
p132
tp133
a(S'lemon rice'
p134
S'30'
p135
tp136
a(S'pulav'
p137
S'30'
p138
tp139
a(S'madduru vada'
p140
S'20'
p141
tp142
a(S'curd rice'
p143
S'30'
p144
tp145
a(S'coffee/tea'
p146
S'10'
p147
tp148
atp149
sS'18278230'
p150
(S'4.1'
p151
(lp152
(S'himalayan belu ras'
p153
S'131'
p154
tp155
a(S'nariyal passion mantra'
p156
S'141'
p157
tp158
a(S'banana bulb'
p159
S'131'
p160
tp161
a(S'kiwi ambi panna'
p162
S'141'
p163
tp164
a(S'kk lemon shikanji'
p165
S'121'
p166
tp167
a(S'patialey wali lassi'
p168
S'121'
p169
tp170
a(S'chatmolafatafat'
p171
S'141'
p172
tp173
a(S'masakali'
p174
S'141'
p175
tp176
a(S'aerated beverages'
p177
S'66'
p178
tp179
a(S'chai / kaafi'
p180
S'55'
p181
tp182
a(S'mineral water'
p183
S'55'
p184
tp185
a(S'luchknowi dahi ki shammi'
p186
S'242'
p187
tp188
a(S'sasron ki champey'
p189
S'262'
p190
tp191
a(S'taka takpaneer tikka'
p192
S'333'
p193
tp194
a(S'jorpuri subz galouti'
p195
S'242'
p196
tp197
a(S'tandoori mushroom'
p198
S'262'
p199
tp200
a(S'challi kolmi kebab'
p201
S'252'
p202
tp203
a(S'achari hari hari seekh'
p204
S'242'
p205
tp206
a(S'kastoori mughalai phool'
p207
S'252'
p208
tp209
a(S'pfc hari mirch chicken'
p210
S'323'
p211
tp212
a(S'jalndari sikandari tangadi'
p213
S'333'
p214
tp215
a(S'ganna chicken'
p216
S'343'
p217
tp218
a(S'gizwani murg chapli'
p219
S'323'
p220
tp221
a(S'mughal e murgh tikka'
p222
S'383'
p223
tp224
a(S'mal mal seekh'
p225
S'353'
p226
tp227
a(S'murg malai shooley'
p228
S'343'
p229
tp230
a(S'purkazi key shammi kebab'
p231
S'373'
p232
tp233
a(S'mutton hatodi  parchey'
p234
S'424'
p235
tp236
a(S'nawabi galouti kebab'
p237
S'444'
p238
tp239
a(S'kebab no. 5'
p240
S'454'
p241
tp242
a(S'mutton kalmi pasht'
p243
S'393'
p244
tp245
a(S'gaathia macchi tikka'
p246
S'494'
p247
tp248
a(S'amritsari macchi '
p249
S'444'
p250
tp251
a(S'achaari angaari jheenga'
p252
S'545'
p253
tp254
a(S'crab 25'
p255
S'575'
p256
tp257
a(S'the royal kebab press'
p258
S'888'
p259
tp260
a(S'samundari istree'
p261
S'999'
p262
tp263
a(S'dal e dhania'
p264
S'141'
p265
tp266
a(S'makai murgh ka raab'
p267
S'161'
p268
tp269
a(S'tamatar vadi ka shorba'
p270
S'141'
p271
tp272
a(S'lehsooni palak pyala'
p273
S'141'
p274
tp275
a(S'dhania chingri'
p276
S'181'
p277
tp278
a(S'choley chaar ghuntala'
p279
S'151'
p280
tp281
a(S'kartari railway dal'
p282
S'141'
p283
tp284
a(S'ralli anakoot murgh'
p285
S'171'
p286
tp287
a(S'picnic chicken'
p288
S'181'
p289
tp290
a(S'bohri mutton curry'
p291
S'212'
p292
tp293
a(S'mastawa'
p294
S'222'
p295
tp296
a(S'wargi dal e dastaan'
p297
S'292'
p298
tp299
a(S'hkathiawari tarkari'
p300
S'282'
p301
tp302
a(S'khatti tomato gobi'
p303
S'272'
p304
tp305
a(S'shaahi subj daalcha'
p306
S'292'
p307
tp308
a(S'harey masaley key koftey'
p309
S'333'
p310
tp311
a(S'kacchey amm ki karari bhindi'
p312
S'282'
p313
tp314
a(S'panchkuta matka saag'
p315
S'303'
p316
tp317
a(S'khurchan paneer papadi'
p318
S'373'
p319
tp320
a(S"vekka singh's makhhan paneer"
p321
S'383'
p322
tp323
a(S'new delhi butter chicken '
p324
S'373'
p325
tp326
a(S'cookermein kukkad'
p327
S'373'
p328
tp329
a(S'gustaba rista'
p330
S'454'
p331
tp332
a(S'nawabi nihari nalli'
p333
S'484'
p334
tp335
a(S'macchi tikka masal'
p336
S'525'
p337
tp338
a(S'jheega e truramkhan'
p339
S'626'
p340
tp341
a(S'tandoori burnt garlic vegetable biryani'
p342
S'333'
p343
tp344
a(S'chaar minari biryani'
p345
S'373'
p346
tp347
a(S"kopper kadai's signature chicken biryani"
p348
S'525'
p349
tp350
a(S'bombay blues biryani'
p351
S'535'
p352
tp353
a(S'bhatti biryani'
p354
S'525'
p355
tp356
a(S'pankhuri roti'
p357
S'111'
p358
tp359
a(S'ghee rice '
p360
S'225'
p361
tp362
a(S'steamed rice'
p363
S'225'
p364
tp365
a(S'kurkura raita'
p366
S'151'
p367
tp368
a(S'pineapple raita'
p369
S'161'
p370
tp371
a(S'mandi salad'
p372
S'131'
p373
tp374
a(S'kachumber'
p375
S'141'
p376
tp377
a(S'gehu ki roti'
p378
S'55'
p379
tp380
a(S'naaaaaaaaaan'
p381
S'88'
p382
tp383
a(S'paratha'
p384
S'88'
p385
tp386
a(S'roomali roli'
p387
S'99'
p388
tp389
a(S'makki ki roti'
p390
S'111'
p391
tp392
a(S'mix bread tokri'
p393
S'222'
p394
tp395
a(S'batessa cake'
p396
S'222'
p397
tp398
a(S'dilli wali fruit cream'
p399
S'242'
p400
tp401
a(S'nutella dodhalava'
p402
S'252'
p403
tp404
a(S'gulab jamun biskit'
p405
S'151'
p406
tp407
a(S'malai asharfiyan '
p408
S'181'
p409
tp410
a(S'choice of ice cream'
p411
S'181'
p412
tp413
a(S'k.k. kullad kulfi'
p414
S'222'
p415
tp416
atp417
sS'52098'
p418
(S'4.9'
p419
(lp420
(S'idly'
p421
S'16'
p422
tp423
a(S'vade'
p424
S'22'
p425
tp426
a(S'khara bath'
p427
S'22'
p428
tp429
a(S'kesari bath'
p430
S'22'
p431
tp432
a(S'coffee / tea'
p433
S'16'
p434
tp435
a(S'butter'
p436
S'8'
p437
tp438
atp439
sS'58698'
p440
(S'4.3'
p441
(lp442
(S'tom yum '
p443
S'169'
p444
tp445
a(S'chinese sour and pepper soup'
p446
S'219'
p447
tp448
a(S'oriental clear soup '
p449
S'169'
p450
tp451
a(S'sweet corn soup'
p452
S'169'
p453
tp454
a(S'summer roll with basil dip '
p455
S'319'
p456
tp457
a(S'summer mango salad '
p458
S'349'
p459
tp460
a(S'snow peas and green beans salad'
p461
S'349'
p462
tp463
a(S'som tam salad'
p464
S'199'
p465
tp466
a(S'slim sumo salad'
p467
S'349'
p468
tp469
a(S"mama's lab kai "
p470
S'399'
p471
tp472
a(S'thai chicken and water chestnut salad'
p473
S'439'
p474
tp475
a(S'crsipy lotus stem'
p476
S'239'
p477
tp478
a(S'crispy chilli potato'
p479
S'229'
p480
tp481
a(S'straight up beans'
p482
S'219'
p483
tp484
a(S'water chestnut spring roll'
p485
S'289'
p486
tp487
a(S'bite sized corm fritter balls'
p488
S'239'
p489
tp490
a(S'hua hin highway rolls'
p491
S'259'
p492
tp493
a(S'java grilled tofu'
p494
S'439'
p495
tp496
a(S'bophhut village hot chicken wings'
p497
S'349'
p498
tp499
a(S'honey chicken'
p500
S'319'
p501
tp502
a(S'classic chicken wings'
p503
S'339'
p504
tp505
a(S'shrimp with dry red chilli'
p506
S'479'
p507
tp508
a(S'traditional crsipy lamb'
p509
S'479'
p510
tp511
a(S'street chicken satay '
p512
S'379'
p513
tp514
a(S'spiced asian BBQ chicken breast'
p515
S'419'
p516
tp517
a(S'grilled fish with south east asian dressing'
p518
S'339'
p519
tp520
a(S'java grilled fish in red hot sambal juice'
p521
S'509'
p522
tp523
a(S'cheese and truffle oil dumplings'
p524
S'299'
p525
tp526
a(S'crystal dumplings'
p527
S'299'
p528
tp529
a(S'traditional peking dumplings'
p530
S'309'
p531
tp532
a(S'street style spicy dumplings'
p533
S'309'
p534
tp535
a(S'old school gyoza '
p536
S'279'
p537
tp538
a(S'prawn and celery dumplings'
p539
S'359'
p540
tp541
a(S'rainbow chicken dumplings'
p542
S'319'
p543
tp544
a(S'soggy thai basil fried rice'
p545
S'499'
p546
tp547
a(S'teriyaki meal in a bowl'
p548
S'539'
p549
tp550
a(S'spicy bangkok bowl'
p551
S'429'
p552
tp553
a(S"street vendor's panang curry bowl"
p554
S'499'
p555
tp556
a(S'fiery thai shrimp fried rice with asian green chilli chicken ribbons'
p557
S'569'
p558
tp559
a(S'smoky BBQ pork belly bowl'
p560
S'709'
p561
tp562
a(S'mamagoto goreng'
p563
S'559'
p564
tp565
a(S'saigon bowl'
p566
S'459'
p567
tp568
a(S'the laksa tribute'
p569
S'499'
p570
tp571
a(S'osaka tube station bowl'
p572
S'519'
p573
tp574
a(S"mama's spicy ramen bowl"
p575
S'519'
p576
tp577
a(S"mamagoto's chicken broth"
p578
S'539'
p579
tp580
a(S'stri fried udon noodles prawn'
p581
S'659'
p582
tp583
a(S'hawkers noodles '
p584
S'339'
p585
tp586
a(S'bali bamie noodles'
p587
S'239'
p588
tp589
a(S'hakka noodles'
p590
S'229'
p591
tp592
a(S'fried rice'
p593
S'229'
p594
tp595
a(S'steam rice'
p596
S'189'
p597
tp598
a(S'sticky fried rice'
p599
S'269'
p600
tp601
a(S'plain sticky rice'
p602
S'209'
p603
tp604
a(S'yangchow champions fried rice'
p605
S'309'
p606
tp607
a(S"london's china town prawn"
p608
S'549'
p609
tp610
a(S"prawn in mama's sauce"
p611
S'649'
p612
tp613
a(S'prawn three pepper bomb'
p614
S'649'
p615
tp616
a(S'shrimp & tofu home style'
p617
S'549'
p618
tp619
a(S'fresh & hot steamed fish '
p620
S'439'
p621
tp622
a(S'crispy fish fillet'
p623
S'399'
p624
tp625
a(S'steamed fish'
p626
S'379'
p627
tp628
a(S'thai red or green curry'
p629
S'379'
p630
tp631
a(S'masaman curry'
p632
S'439'
p633
tp634
a(S'rendang curry chicken '
p635
S'549'
p636
tp637
atp638
sS'18375545'
p639
(S'3.3'
p640
(lp641
(S'single idly'
p642
S'15'
p643
tp644
a(S'single vada'
p645
S'20'
p646
tp647
a(S'single idly vada'
p648
S'35'
p649
tp650
a(S'double idly'
p651
S'30'
p652
tp653
a(S'double idly vada'
p654
S'50'
p655
tp656
a(S'pickle dosa'
p657
S'45'
p658
tp659
a(S'vegetable dosa'
p660
S'45'
p661
tp662
a(S'avalakki dosa'
p663
S'45'
p664
tp665
a(S'paddu'
p666
S'35'
p667
tp668
a(S'kesari bath'
p669
S'30'
p670
tp671
a(S'ghee upma'
p672
S'30'
p673
tp674
a(S'shavige bath'
p675
S'35'
p676
tp677
a(S'obattu'
p678
S'25'
p679
tp680
a(S'anjoor halwa'
p681
S'30'
p682
tp683
a(S'filter coffee'
p684
S'15'
p685
tp686
a(S'masala chai'
p687
S'15'
p688
tp689
a(S'lemon chai'
p690
S'20'
p691
tp692
atp693
sS'61111'
p694
(S'4.9'
p695
(lp696
(S'Crunch Slice'
p697
S'140'
p698
tp699
a(S'Ice Cream Cake Slice'
p700
S'140'
p701
tp702
a(S'Truffle Ice Cream'
p703
S'210'
p704
tp705
a(S'Cherry'
p706
S'210'
p707
tp708
a(S'Coffee'
p709
S'180'
p710
tp711
a(S'Chocolate '
p712
S'210'
p713
tp714
a(S'Fresh fruit salad'
p715
S'250'
p716
tp717
a(S'Banana split'
p718
S'210'
p719
tp720
a(S'Strawberry'
p721
S'250'
p722
tp723
a(S'Cones Ice cream'
p724
S'40'
p725
tp726
a(S'Cups Ice cream small'
p727
S'100'
p728
tp729
a(S'Cups Ice cream medium'
p730
S'150'
p731
tp732
a(S'Cups ice cream large'
p733
S'180'
p734
tp735
a(S'Frappe ice cream shake'
p736
S'140'
p737
tp738
a(S'Affogato al Caffe'
p739
S'180'
p740
tp741
a(S'Spagnola'
p742
S'210'
p743
tp744
a(S'Ice cream to go 250g'
p745
S'240'
p746
tp747
a(S'Ice cream to go 1/2 kg'
p748
S'450'
p749
tp750
a(S'Ice cream to go 1 kg'
p751
S'850'
p752
tp753
a(S'Ice cream cake 1kg'
p754
S'1200'
p755
tp756
atp757
sS'52459'
p758
(S'4.7'
p759
(lp760
(S'idly (2 pieces)'
p761
S'20'
p762
tp763
a(S'vade'
p764
S'20'
p765
tp766
a(S'rava idly (1 piece)'
p767
S'25'
p768
tp769
a(S'masale dose'
p770
S'40'
p771
tp772
a(S'benne masale dose'
p773
S'45'
p774
tp775
a(S'benne plain dose'
p776
S'41'
p777
tp778
a(S'plain dose'
p779
S'35'
p780
tp781
a(S'set dose'
p782
S'40'
p783
tp784
a(S'khali dose'
p785
S'35'
p786
tp787
a(S'rice bath'
p788
S'30'
p789
tp790
a(S'poori'
p791
S'40'
p792
tp793
a(S'kesar bath'
p794
S'22'
p795
tp796
a(S'khara bath'
p797
S'20'
p798
tp799
a(S'chow chow bath'
p800
S'37'
p801
tp802
a(S'madduru vade'
p803
S'25'
p804
tp805
a(S'mangaluru bhajji'
p806
S'25'
p807
tp808
a(S'kapi tea / badami halu'
p809
S'15'
p810
tp811
atp812
sS'55642'
p813
(S'2.6'
p814
(lp815
(S'tatte idli'
p816
S'50'
p817
tp818
a(S'idli'
p819
S'50'
p820
tp821
a(S'rava idli'
p822
S'50'
p823
tp824
a(S'mix vegetable idli'
p825
S'50'
p826
tp827
a(S'kanchipuram rava idli'
p828
S'50'
p829
tp830
a(S'mini idlii (14 Pieces)'
p831
S'80'
p832
tp833
a(S'podi idli'
p834
S'110'
p835
tp836
a(S'medu vada'
p837
S'110'
p838
tp839
a(S'curd vada'
p840
S'110'
p841
tp842
a(S'maddur vada'
p843
S'110'
p844
tp845
a(S'onion pakoda'
p846
S'110'
p847
tp848
a(S'mushroom pakoda'
p849
S'110'
p850
tp851
a(S'baby corn pakoda'
p852
S'110'
p853
tp854
a(S'paneer pakoda'
p855
S'110'
p856
tp857
a(S'idli manchurian'
p858
S'110'
p859
tp860
a(S'chilli idli'
p861
S'110'
p862
tp863
a(S'idli 65'
p864
S'110'
p865
tp866
a(S'pepper idli'
p867
S'110'
p868
tp869
a(S'babycorn manchurian'
p870
S'110'
p871
tp872
a(S'babycorn chilli'
p873
S'110'
p874
tp875
a(S'mushroom manchurian'
p876
S'110'
p877
tp878
a(S'mushroom chilli'
p879
S'110'
p880
tp881
a(S'gobi manchurian'
p882
S'110'
p883
tp884
a(S'cap cheese dosa'
p885
S'100'
p886
tp887
a(S'lilliput dosa'
p888
S'100'
p889
tp890
a(S'chocolate roast dosa'
p891
S'100'
p892
tp893
a(S'plain dosa'
p894
S'100'
p895
tp896
a(S'rava dosa'
p897
S'110'
p898
tp899
a(S'rava onion dosa'
p900
S'110'
p901
tp902
a(S'ghee dosa'
p903
S'110'
p904
tp905
a(S'butter dosa'
p906
S'110'
p907
tp908
a(S'bangalore soft set dosa'
p909
S'110'
p910
tp911
a(S'mysore plain dosa'
p912
S'110'
p913
tp914
a(S'masala dosa'
p915
S'120'
p916
tp917
a(S'mysore masala dosa'
p918
S'120'
p919
tp920
a(S'paper plain dosa'
p921
S'120'
p922
tp923
a(S'podi masala dosa'
p924
S'120'
p925
tp926
a(S'butter masala dosa'
p927
S'120'
p928
tp929
a(S'rava masala'
p930
S'120'
p931
tp932
a(S'rava onion masala dosa'
p933
S'120'
p934
tp935
a(S'onion roast masala dosa'
p936
S'120'
p937
tp938
a(S'paper masala dosa'
p939
S'130'
p940
tp941
a(S'mushroom chatpata roll dosa'
p942
S'130'
p943
tp944
a(S'open butter cheese masala dosa'
p945
S'130'
p946
tp947
a(S'rocket roast cheese masala dosa'
p948
S'130'
p949
tp950
a(S'ragi masala dosa'
p951
S'130'
p952
tp953
a(S'kanchipuram masala dosa'
p954
S'130'
p955
tp956
a(S'malabar podi masala dosa'
p957
S'130'
p958
tp959
a(S'plain cheese masala dosa'
p960
S'130'
p961
tp962
a(S'kanchipuram cheese masala dosa'
p963
S'140'
p964
tp965
a(S'paneer kheema roll dosa'
p966
S'140'
p967
tp968
atp969
sS'58243'
p970
(S'4.2'
p971
(lp972
(S'spict soya spring rolls'
p973
S'100'
p974
tp975
a(S'corn and scallion fritters'
p976
S'100'
p977
tp978
a(S'tofu and spinach wonton'
p979
S'100'
p980
tp981
a(S'pan fried spinach cheong fan'
p982
S'100'
p983
tp984
a(S'pan fried chicken dim sum'
p985
S'100'
p986
tp987
a(S'chicken and glass noodles spring rolls'
p988
S'100'
p989
tp990
a(S'pan fried lamb wotif'
p991
S'100'
p992
tp993
a(S'crispy prawn cheong fan'
p994
S'100'
p995
tp996
a(S'sesame prawn toast'
p997
S'100'
p998
tp999
a(S'fried cracker prawn '
p1000
S'100'
p1001
tp1002
a(S'threaded crab dumplings'
p1003
S'100'
p1004
tp1005
a(S'mushroom satay'
p1006
S'275'
p1007
tp1008
a(S'chicken satay'
p1009
S'275'
p1010
tp1011
a(S'tofu satay'
p1012
S'275'
p1013
tp1014
a(S'indonesian grilled prawns skewers with ripe papaya salsa'
p1015
S'275'
p1016
tp1017
a(S'apricot glazed cauliflower in noodle bas'
p1018
S'325'
p1019
tp1020
a(S'crispy water chestnuts and banboo shoots with chilli lemongrass'
p1021
S'325'
p1022
tp1023
a(S'tofu chilli pepper with five salt'
p1024
S'350'
p1025
tp1026
a(S'shanghai chillli potatoes with celery'
p1027
S'325'
p1028
tp1029
a(S'baby corn with roasted chilli paste'
p1030
S'325'
p1031
tp1032
a(S'lotus stem with honey chilli'
p1033
S'325'
p1034
tp1035
a(S'tim tai chili chicken'
p1036
S'375'
p1037
tp1038
a(S'stuffed chicken wings with glass noodles water chestnuts'
p1039
S'375'
p1040
tp1041
a(S'thai style grilled chiecken with green apple som tam'
p1042
S'375'
p1043
tp1044
a(S'chicken with roasted chilli paste'
p1045
S'375'
p1046
tp1047
a(S'banana wrapped grilled chicken with sambal oelek'
p1048
S'375'
p1049
tp1050
a(S'crispy lamb with spring onion and garlic flakes'
p1051
S'475'
p1052
tp1053
a(S'prawns with chilli sambal long beans and cherry tomatoes '
p1054
S'525'
p1055
tp1056
a(S'thai garlic pepper prawns with bell pepper'
p1057
S'525'
p1058
tp1059
a(S'banana leaf wrapped fish with balinese spices'
p1060
S'425'
p1061
tp1062
a(S'crispy fish chilli pepper'
p1063
S'425'
p1064
tp1065
a(S'ped tod namprik pow'
p1066
S'450'
p1067
tp1068
a(S'thai green curry'
p1069
S'300'
p1070
tp1071
a(S'thai red curry'
p1072
S'300'
p1073
tp1074
a(S'red jungle curry'
p1075
S'300'
p1076
tp1077
a(S'thai massaman curry'
p1078
S'300'
p1079
tp1080
a(S'penang curry'
p1081
S'300'
p1082
tp1083
a(S'burmese curry '
p1084
S'300'
p1085
tp1086
a(S'malaysian curry'
p1087
S'300'
p1088
tp1089
a(S'laotian curry'
p1090
S'300'
p1091
tp1092
a(S'western sumatran lamb curry'
p1093
S'300'
p1094
tp1095
a(S'pineapple curry with prawns'
p1096
S'300'
p1097
tp1098
a(S'fiery sri lankan curry with cherry tomatoes'
p1099
S'300'
p1100
tp1101
a(S'burmese pan fried noodles with curry sauce'
p1102
S'300'
p1103
tp1104
a(S'singapore rice vermicelli noodles'
p1105
S'300'
p1106
tp1107
a(S'prad thai'
p1108
S'300'
p1109
tp1110
a(S'prad kee mao'
p1111
S'300'
p1112
tp1113
a(S'malaysian kway teow'
p1114
S'300'
p1115
tp1116
a(S'shanghai noodles'
p1117
S'300'
p1118
tp1119
a(S'burmese khaw swe'
p1120
S'300'
p1121
tp1122
a(S'singaporean laksa'
p1123
S'300'
p1124
tp1125
a(S'khao pahd'
p1126
S'300'
p1127
tp1128
a(S'garlic fried rice with broccoli'
p1129
S'300'
p1130
tp1131
a(S'black olive fried rice'
p1132
S'300'
p1133
tp1134
a(S'nasi goreng'
p1135
S'300'
p1136
tp1137
a(S'quick fried mix vegetable with ginger wine sauce'
p1138
S'325'
p1139
tp1140
a(S'broccoli and spinach with yellow brean sauce'
p1141
S'325'
p1142
tp1143
a(S'malaysian style spicy braised green beans'
p1144
S'325'
p1145
tp1146
a(S'water chestnuts and shiitake with black pepper sauce'
p1147
S'325'
p1148
tp1149
a(S'tofu with exotic mushroom'
p1150
S'350'
p1151
tp1152
a(S'potatoes with spicy black bean sauce'
p1153
S'325'
p1154
tp1155
a(S'seasonal vegetable in chilli basil sauce'
p1156
S'325'
p1157
tp1158
a(S'mushroom and spinach with soya chilli sauce'
p1159
S'325'
p1160
tp1161
a(S'ma po tofu with bell pepper and chinese spices'
p1162
S'350'
p1163
tp1164
a(S'hong kong vegetables with sesame soya'
p1165
S'325'
p1166
tp1167
a(S'kung pao chicken with burnt chillies. bell pepper and cashew nuts'
p1168
S'375'
p1169
tp1170
a(S'malaysian family style chicken'
p1171
S'375'
p1172
tp1173
a(S'chicken grapow with hot basil chillies and kaffir lime leaves'
p1174
S'375'
p1175
tp1176
a(S'chicken with shitake and water chestnuts'
p1177
S'400'
p1178
tp1179
a(S'lamb with young peppercorns and thai herbs'
p1180
S'475'
p1181
tp1182
a(S'lamb & leeks with black pepper sauce'
p1183
S'475'
p1184
tp1185
a(S'lamb & bamboo shoots with black bean sauce'
p1186
S'475'
p1187
tp1188
a(S'"sweet & sour prawns with pineapple & lychees & cherry tomatoes & cucumber"'
p1189
S'525'
p1190
tp1191
a(S'pepper prawns with baby corm & mushrooms'
p1192
S'525'
p1193
tp1194
a(S'vietnamese spicy prawns with lemongrass'
p1195
S'525'
p1196
tp1197
a(S'prawns with mushroom bell pepper chilli & basil'
p1198
S'525'
p1199
tp1200
a(S'fish with chinese greens '
p1201
S'425'
p1202
tp1203
a(S'tamarind fish with red chillies & kaffir lime leaves'
p1204
S'425'
p1205
tp1206
a(S'pla tod samroad'
p1207
S'425'
p1208
tp1209
a(S'fish with roasted chilli sauce & basil'
p1210
S'425'
p1211
tp1212
a(S'poo phad pong ka ree'
p1213
S'750'
p1214
tp1215
a(S'singapore chilli crab'
p1216
S'750'
p1217
tp1218
a(S'hakka noodles '
p1219
S'300'
p1220
tp1221
a(S'indonesian bamee goreng'
p1222
S'300'
p1223
tp1224
a(S'thai chilli basil noodles '
p1225
S'300'
p1226
tp1227
a(S'vietnamese pho noodles soup and aromatic herbs and spices'
p1228
S'300'
p1229
tp1230
a(S'udon noodles soup with aromatic broth on fresh garden asian greens'
p1231
S'300'
p1232
tp1233
a(S'tim tai special chilli coriander noodels'
p1234
S'300'
p1235
tp1236
a(S'yang zhou fried rice'
p1237
S'300'
p1238
tp1239
a(S'ginger and capsicum fried rice'
p1240
S'300'
p1241
tp1242
a(S'steam rice'
p1243
S'160'
p1244
tp1245
a(S'crabmeat omellete'
p1246
S'250'
p1247
tp1248
a(S'hand cut potato fries with tom yum salt'
p1249
S'200'
p1250
tp1251
atp1252
sS'58576'
p1253
(S'4.9'
p1254
(lp1255
(S'idli(Single)'
p1256
S'10'
p1257
tp1258
a(S'vada'
p1259
S'10'
p1260
tp1261
a(S'kesaribath'
p1262
S'15'
p1263
tp1264
a(S'kharabath'
p1265
S'15'
p1266
tp1267
a(S'chowchow bhath'
p1268
S'25'
p1269
tp1270
a(S'masala dose'
p1271
S'20'
p1272
tp1273
a(S'plain dose'
p1274
S'20'
p1275
tp1276
a(S'extra palya'
p1277
S'10'
p1278
tp1279
a(S'butter'
p1280
S'10'
p1281
tp1282
a(S'half coffee'
p1283
S'10'
p1284
tp1285
a(S'half tea'
p1286
S'10'
p1287
tp1288
a(S'half badam milk'
p1289
S'20'
p1290
tp1291
a(S'half horlicks'
p1292
S'20'
p1293
tp1294
atp1295
sS'58786'
p1296
(S'3.9'
p1297
(lp1298
(S'gulab jamun biskit'
p1299
S'30'
p1300
tp1301
a(S'aam ka panna'
p1302
S'30'
p1303
tp1304
a(S'paneer ghewar'
p1305
S'30'
p1306
tp1307
a(S'matar kachori'
p1308
S'30'
p1309
tp1310
a(S'paneer kuttu pakoda'
p1311
S'30'
p1312
tp1313
a(S'urad dal samosa'
p1314
S'30'
p1315
tp1316
a(S'dahi gujiya'
p1317
S'30'
p1318
tp1319
a(S'kachumbar'
p1320
S'30'
p1321
tp1322
a(S'green chutney'
p1323
S'30'
p1324
tp1325
a(S'garlic chutney'
p1326
S'30'
p1327
tp1328
a(S'pickle'
p1329
S'30'
p1330
tp1331
a(S'fried papad'
p1332
S'30'
p1333
tp1334
a(S'dal panchmel'
p1335
S'100'
p1336
tp1337
a(S'matar paneer baati'
p1338
S'100'
p1339
tp1340
a(S'ghee choorma'
p1341
S'100'
p1342
tp1343
a(S'maharaja paneer'
p1344
S'100'
p1345
tp1346
a(S'methi magodi'
p1347
S'100'
p1348
tp1349
a(S'aloo petha'
p1350
S'100'
p1351
tp1352
a(S'bharwan kofta'
p1353
S'100'
p1354
tp1355
a(S'raabdi'
p1356
S'100'
p1357
tp1358
a(S'imlana'
p1359
S'100'
p1360
tp1361
a(S'do chonk ki dal'
p1362
S'100'
p1363
tp1364
a(S'chilla ki kadhi'
p1365
S'100'
p1366
tp1367
a(S'shahi gulab jamun'
p1368
S'100'
p1369
tp1370
a(S'chikoo halwa'
p1371
S'100'
p1372
tp1373
a(S'fulka'
p1374
S'20'
p1375
tp1376
a(S'missi roti'
p1377
S'20'
p1378
tp1379
a(S'urad dal kachawdi'
p1380
S'20'
p1381
tp1382
a(S'hari moong dal ki kheechdi'
p1383
S'20'
p1384
tp1385
a(S'chole ka pulao'
p1386
S'20'
p1387
tp1388
a(S'steamed rice'
p1389
S'20'
p1390
tp1391
atp1392
sS'51065'
p1393
(S'4.2'
p1394
(lp1395
(S'masala dose'
p1396
S'43'
p1397
tp1398
a(S'plain dose'
p1399
S'40'
p1400
tp1401
a(S'sagu masala dose'
p1402
S'45'
p1403
tp1404
a(S'rava vada'
p1405
S'22'
p1406
tp1407
a(S'kharabath/uppittu'
p1408
S'25'
p1409
tp1410
a(S'kesaribath'
p1411
S'25'
p1412
tp1413
a(S'chow chow bath'
p1414
S'50'
p1415
tp1416
a(S'idly (single)'
p1417
S'13'
p1418
tp1419
a(S'idly (per plate)'
p1420
S'25'
p1421
tp1422
a(S'uddin vada'
p1423
S'25'
p1424
tp1425
a(S'poori (single)'
p1426
S'17'
p1427
tp1428
a(S'poori (per plate)'
p1429
S'32'
p1430
tp1431
a(S'coffee / tea'
p1432
S'15'
p1433
tp1434
a(S'1 idly - vada'
p1435
S'38'
p1436
tp1437
a(S'2 idly - vada'
p1438
S'50'
p1439
tp1440
a(S'extra butter / sagu / sambar'
p1441
S'5'
p1442
tp1443
atp1444
sS'57141'
p1445
(S'4'
p1446
(lp1447
(S'aloo pyaaz pakoras'
p1448
S'100'
p1449
tp1450
a(S'bread paneer pakoras '
p1451
S'110'
p1452
tp1453
a(S'french fries '
p1454
S'110'
p1455
tp1456
a(S'assorted pakoras'
p1457
S'120'
p1458
tp1459
a(S'french fries punjabi style'
p1460
S'140'
p1461
tp1462
a(S'kalmi punjbai sticks'
p1463
S'140'
p1464
tp1465
a(S'cheese pataka balls'
p1466
S'150'
p1467
tp1468
a(S'puri aloo '
p1469
S'110'
p1470
tp1471
a(S'puri chole '
p1472
S'120'
p1473
tp1474
a(S'kachori aloo'
p1475
S'130'
p1476
tp1477
a(S'chole kulcha'
p1478
S'140'
p1479
tp1480
a(S'chole bhature'
p1481
S'130'
p1482
tp1483
a(S'pindi chole bhature'
p1484
S'140'
p1485
tp1486
a(S'aloo jeera'
p1487
S'120'
p1488
tp1489
a(S'aloo gobhi dry'
p1490
S'140'
p1491
tp1492
a(S'gobhi masala dery'
p1493
S'160'
p1494
tp1495
a(S'aloo gobhi masala gravy'
p1496
S'160'
p1497
tp1498
a(S'rajma'
p1499
S'170'
p1500
tp1501
a(S'chole'
p1502
S'180'
p1503
tp1504
a(S'pindi chole bhature'
p1505
S'180'
p1506
tp1507
a(S'mix veg dry'
p1508
S'200'
p1509
tp1510
a(S'baigan bharta'
p1511
S'200'
p1512
tp1513
a(S'veg kadai'
p1514
S'200'
p1515
tp1516
a(S'veg kolapuri'
p1517
S'200'
p1518
tp1519
a(S'matar panner'
p1520
S'200'
p1521
tp1522
a(S'paneer butter masala'
p1523
S'200'
p1524
tp1525
a(S'palak paneer'
p1526
S'200'
p1527
tp1528
a(S'kadai paneer'
p1529
S'220'
p1530
tp1531
a(S'paneer do pyaaza'
p1532
S'220'
p1533
tp1534
a(S'paneer bhurji'
p1535
S'230'
p1536
tp1537
a(S'shahi paneer'
p1538
S'240'
p1539
tp1540
a(S'paneer labadar'
p1541
S'250'
p1542
tp1543
a(S'punjabi dal tadka'
p1544
S'160'
p1545
tp1546
a(S'dhabe ki dal'
p1547
S'180'
p1548
tp1549
a(S'kadhi'
p1550
S'180'
p1551
tp1552
a(S'dal makhani'
p1553
S'220'
p1554
tp1555
a(S'aloo paratha '
p1556
S'50'
p1557
tp1558
a(S'aloo pyaaz paratha'
p1559
S'60'
p1560
tp1561
a(S'gobhi paratha'
p1562
S'80'
p1563
tp1564
a(S'onion paratha'
p1565
S'80'
p1566
tp1567
a(S'mix paratha'
p1568
S'90'
p1569
tp1570
a(S'paneer paratha'
p1571
S'100'
p1572
tp1573
a(S'matar paratha'
p1574
S'100'
p1575
tp1576
a(S'cheese paratha'
p1577
S'150'
p1578
tp1579
a(S'white butter'
p1580
S'40'
p1581
tp1582
a(S'chilli onion rice'
p1583
S'180'
p1584
tp1585
a(S'matar pulao'
p1586
S'190'
p1587
tp1588
a(S'paneer pulao'
p1589
S'210'
p1590
tp1591
a(S'shahi pulao'
p1592
S'260'
p1593
tp1594
atp1595
sS'52228'
p1596
(S'4.2'
p1597
(lp1598
(S'tandoori guchchi'
p1599
S'845'
p1600
tp1601
a(S'paneer tikka multani'
p1602
S'445'
p1603
tp1604
a(S'tandoori broccoli'
p1605
S'445'
p1606
tp1607
a(S'harra bharra kebab'
p1608
S'395'
p1609
tp1610
a(S'beetroot peanut tikki'
p1611
S'395'
p1612
tp1613
a(S'mirch malai seekh'
p1614
S'395'
p1615
tp1616
a(S'bharwaan khumb peshawari'
p1617
S'395'
p1618
tp1619
a(S'subz ki khaam khartai'
p1620
S'395'
p1621
tp1622
a(S'veg kurkuri'
p1623
S'395'
p1624
tp1625
a(S'lahori seekh'
p1626
S'395'
p1627
tp1628
a(S'bhutteyan de kebab'
p1629
S'395'
p1630
tp1631
a(S'dahi ke kebab'
p1632
S'395'
p1633
tp1634
a(S'bharwaan aloo pothohari'
p1635
S'395'
p1636
tp1637
a(S'tandoori gobhi'
p1638
S'375'
p1639
tp1640
a(S'veg kebab platter'
p1641
S'675'
p1642
tp1643
a(S'punjab grill exotic seafood platter'
p1644
S'1650'
p1645
tp1646
a(S'tandoori lobster'
p1647
S'1450'
p1648
tp1649
a(S'tandoori duck'
p1650
S'1195'
p1651
tp1652
a(S'tandoori crab'
p1653
S'995'
p1654
tp1655
a(S'tawa jheenga'
p1656
S'895'
p1657
tp1658
a(S'tandoori jheenga'
p1659
S'895'
p1660
tp1661
a(S'salmon tikka'
p1662
S'895'
p1663
tp1664
a(S'tandoori pomfret'
p1665
S'725'
p1666
tp1667
a(S'ajwaini fish tikka'
p1668
S'725'
p1669
tp1670
a(S'fish amritsari'
p1671
S'625'
p1672
tp1673
a(S'chaamp taajdar'
p1674
S'625'
p1675
tp1676
a(S'kakori seekh kebab'
p1677
S'495'
p1678
tp1679
a(S'raan-e-sikandari'
p1680
S'895'
p1681
tp1682
a(S'khaam khatai '
p1683
S'495'
p1684
tp1685
a(S'ghee roast mutton boti'
p1686
S'595'
p1687
tp1688
a(S'tandoori murgh'
p1689
S'695'
p1690
tp1691
a(S'bhatti da murgh'
p1692
S'525'
p1693
tp1694
a(S'murgh tikka punjab grill'
p1695
S'495'
p1696
tp1697
a(S'murgh malai tikka'
p1698
S'495'
p1699
tp1700
a(S'chicken kurkuri'
p1701
S'450'
p1702
tp1703
a(S'raunaqueen seekhan '
p1704
S'525'
p1705
tp1706
a(S'non-veg kebab platter'
p1707
S'795'
p1708
tp1709
a(S'bharwaan kesari guchchi'
p1710
S'825'
p1711
tp1712
a(S'malai chena pedas'
p1713
S'425'
p1714
tp1715
a(S'paneer lababdar'
p1716
S'425'
p1717
tp1718
a(S'paneer makhani'
p1719
S'425'
p1720
tp1721
a(S'patialashahi kadhai paneer'
p1722
S'425'
p1723
tp1724
a(S'palak paneer'
p1725
S'425'
p1726
tp1727
a(S'amritsari malai kofta'
p1728
S'425'
p1729
tp1730
a(S'tawa vegetables'
p1731
S'425'
p1732
tp1733
a(S'khumb hara dhaniya pyaza'
p1734
S'425'
p1735
tp1736
a(S'subziyaan de millniyan'
p1737
S'425'
p1738
tp1739
a(S'martaban de charra aloo'
p1740
S'395'
p1741
tp1742
a(S'sarson da saag'
p1743
S'395'
p1744
tp1745
a(S'kadhi pakoda'
p1746
S'395'
p1747
tp1748
a(S'dal punjab grill '
p1749
S'425'
p1750
tp1751
a(S'rawalpindi channa'
p1752
S'395'
p1753
tp1754
a(S'dal panjratani'
p1755
S'395'
p1756
tp1757
a(S'punjab grill deg hot pot chicken'
p1758
S'475'
p1759
tp1760
a(S'dhaniya mirchi da kukkad'
p1761
S'475'
p1762
tp1763
a(S'murgh makhni'
p1764
S'475'
p1765
tp1766
a(S'kadhai murgh'
p1767
S'475'
p1768
tp1769
a(S'murgh lababdar'
p1770
S'475'
p1771
tp1772
a(S'meat punjab grill'
p1773
S'545'
p1774
tp1775
a(S'raarhya meat'
p1776
S'545'
p1777
tp1778
a(S'nalli gosht'
p1779
S'550'
p1780
tp1781
a(S'kadhai jheenga'
p1782
S'795'
p1783
tp1784
a(S'patiala shahi machhi'
p1785
S'575'
p1786
tp1787
atp1788
sS'51490'
p1789
(S'2.5'
p1790
(lp1791
(S'Tomato cream soup'
p1792
S'89'
p1793
tp1794
a(S'Cream veg soup'
p1795
S'89'
p1796
tp1797
a(S'Mix veg soup'
p1798
S'89'
p1799
tp1800
a(S'Sweet corn soup'
p1801
S'89'
p1802
tp1803
a(S'Veg Manchow soup'
p1804
S'99'
p1805
tp1806
a(S'Hot & Sour veg soup'
p1807
S'99'
p1808
tp1809
a(S'Stuff tikki'
p1810
S'119'
p1811
tp1812
a(S'Hara bhara kabab'
p1813
S'129'
p1814
tp1815
a(S'Milejule pakode '
p1816
S'129'
p1817
tp1818
a(S'Finger chips (potato)'
p1819
S'119'
p1820
tp1821
a(S'panner tikka'
p1822
S'159'
p1823
tp1824
a(S'Panner pakoda'
p1825
S'139'
p1826
tp1827
a(S'pudina panner tikka'
p1828
S'159'
p1829
tp1830
a(S'chilli panner '
p1831
S'149'
p1832
tp1833
a(S'baby corn manchurian'
p1834
S'139'
p1835
tp1836
a(S'baby corn chilly'
p1837
S'139'
p1838
tp1839
a(S'baby corn pepper dry'
p1840
S'139'
p1841
tp1842
a(S'gobi machurian'
p1843
S'139'
p1844
tp1845
a(S'mixed vegetable'
p1846
S'129'
p1847
tp1848
a(S'kadai subzi'
p1849
S'129'
p1850
tp1851
a(S'dum aloo kashmiri'
p1852
S'149'
p1853
tp1854
a(S'dum aloo banarsi'
p1855
S'139'
p1856
tp1857
a(S'deshi dum aloo'
p1858
S'139'
p1859
tp1860
a(S'palak kofta '
p1861
S'159'
p1862
tp1863
a(S'palak paneer'
p1864
S'149'
p1865
tp1866
a(S'aloo palak'
p1867
S'129'
p1868
tp1869
a(S'Plain palak'
p1870
S'139'
p1871
tp1872
a(S'aloo palak'
p1873
S'129'
p1874
tp1875
a(S'Plain palak'
p1876
S'139'
p1877
tp1878
a(S'shahi malai kofta'
p1879
S'169'
p1880
tp1881
a(S'shahi malai paneer'
p1882
S'169'
p1883
tp1884
a(S'shahi paneer'
p1885
S'149'
p1886
tp1887
a(S'mutter paneer'
p1888
S'149'
p1889
tp1890
a(S'kadai paneer'
p1891
S'149'
p1892
tp1893
a(S'methi mutter malai'
p1894
S'179'
p1895
tp1896
a(S'kaaju masala mutter'
p1897
S'199'
p1898
tp1899
a(S'paneer butter masala'
p1900
S'159'
p1901
tp1902
a(S'paneer tikka masala'
p1903
S'159'
p1904
tp1905
a(S'chole masala'
p1906
S'139'
p1907
tp1908
a(S'rajma masala'
p1909
S'139'
p1910
tp1911
a(S'tawa veg'
p1912
S'139'
p1913
tp1914
a(S'bhindi do pyaza'
p1915
S'139'
p1916
tp1917
a(S'bhindi masala'
p1918
S'139'
p1919
tp1920
a(S'bhindi chilli'
p1921
S'149'
p1922
tp1923
a(S'gobi masala'
p1924
S'139'
p1925
tp1926
a(S'paneer bhurji'
p1927
S'159'
p1928
tp1929
a(S'jeera aloo'
p1930
S'119'
p1931
tp1932
a(S'aloo do pyaza'
p1933
S'129'
p1934
tp1935
a(S'aloo gobi mutter'
p1936
S'139'
p1937
tp1938
a(S'aloo mutter'
p1939
S'129'
p1940
tp1941
a(S'aloo gobi mutter'
p1942
S'129'
p1943
tp1944
a(S'aloo methi'
p1945
S'129'
p1946
tp1947
a(S'masaledar kerala'
p1948
S'139'
p1949
tp1950
a(S'bharwan mirchi'
p1951
S'139'
p1952
tp1953
a(S'baingan ka bharta'
p1954
S'149'
p1955
tp1956
a(S'Dal tadka highway style'
p1957
S'149'
p1958
tp1959
a(S'palak dal'
p1960
S'149'
p1961
tp1962
a(S'dal fry '
p1963
S'149'
p1964
tp1965
a(S'dal makhani'
p1966
S'150'
p1967
tp1968
a(S'kair sangri ki subzi'
p1969
S'189'
p1970
tp1971
a(S'rajasthani kadhi'
p1972
S'129'
p1973
tp1974
a(S'gatte ki subzi'
p1975
S'139'
p1976
tp1977
a(S'stuffed tomato'
p1978
S'149'
p1979
tp1980
a(S'sarson ka saag'
p1981
S'159'
p1982
tp1983
a(S'dal bati choorma thali'
p1984
S'269'
p1985
tp1986
a(S'extra bati '
p1987
S'49'
p1988
tp1989
a(S'extra choorma'
p1990
S'69'
p1991
tp1992
a(S'tawa roti'
p1993
S'13'
p1994
tp1995
a(S'ghee tawa roti'
p1996
S'15'
p1997
tp1998
a(S'tandoori roti'
p1999
S'30'
p2000
tp2001
a(S'butter tandoori roti'
p2002
S'35'
p2003
tp2004
a(S'plain naan'
p2005
S'40'
p2006
tp2007
a(S'butter naan'
p2008
S'45'
p2009
tp2010
a(S'garlick naan'
p2011
S'55'
p2012
tp2013
a(S'butter kulcha'
p2014
S'45'
p2015
tp2016
a(S'plain kulcha'
p2017
S'40'
p2018
tp2019
a(S'stuff kulcha'
p2020
S'60'
p2021
tp2022
a(S'stuff kulcha paneer'
p2023
S'70'
p2024
tp2025
a(S'hasta roti'
p2026
S'40'
p2027
tp2028
a(S'missi roti'
p2029
S'50'
p2030
tp2031
a(S'makka roti'
p2032
S'40'
p2033
tp2034
a(S'bajara roti'
p2035
S'40'
p2036
tp2037
a(S'aloo/gobi/mooli paratha'
p2038
S'49'
p2039
tp2040
a(S'paneer paratha'
p2041
S'59'
p2042
tp2043
a(S'melhi paratha'
p2044
S'49'
p2045
tp2046
a(S'sattoo paratha'
p2047
S'49'
p2048
tp2049
a(S'ajwain paratha'
p2050
S'39'
p2051
tp2052
a(S'plain paratha'
p2053
S'39'
p2054
tp2055
a(S'lachha paratha'
p2056
S'59'
p2057
tp2058
a(S'plain rice '
p2059
S'89'
p2060
tp2061
a(S'jeera rice'
p2062
S'99'
p2063
tp2064
a(S'fried rice'
p2065
S'129'
p2066
tp2067
a(S'ghee rice'
p2068
S'109'
p2069
tp2070
a(S'peas pulao'
p2071
S'129'
p2072
tp2073
a(S'vegetable pulao'
p2074
S'129'
p2075
tp2076
a(S'Onion tomato pulao'
p2077
S'129'
p2078
tp2079
a(S'veg biryani'
p2080
S'149'
p2081
tp2082
a(S'dum aloo biryani'
p2083
S'149'
p2084
tp2085
a(S'yellow khichdi with papad'
p2086
S'109'
p2087
tp2088
a(S'curd rice'
p2089
S'109'
p2090
tp2091
a(S'green salad'
p2092
S'69'
p2093
tp2094
a(S'sprouts salad'
p2095
S'69'
p2096
tp2097
a(S'sada papad'
p2098
S'29'
p2099
tp2100
a(S'masala papad'
p2101
S'49'
p2102
tp2103
a(S'sda dahi'
p2104
S'39'
p2105
tp2106
a(S'raitha'
p2107
S'59'
p2108
tp2109
a(S'boondi raitha'
p2110
S'79'
p2111
tp2112
a(S'pudina raitha'
p2113
S'59'
p2114
tp2115
a(S'rajasthani lassi'
p2116
S'69'
p2117
tp2118
a(S'lassi'
p2119
S'69'
p2120
tp2121
a(S'kesari thandai'
p2122
S'79'
p2123
tp2124
a(S'nimbu shikanji'
p2125
S'49'
p2126
tp2127
a(S'jal jeera'
p2128
S'49'
p2129
tp2130
a(S'chhach'
p2131
S'49'
p2132
tp2133
a(S"gulab jammon 2 pc's"
p2134
S'69'
p2135
tp2136
a(S'gulab jamoon 1 pc'
p2137
S'39'
p2138
tp2139
a(S'malpoa'
p2140
S'109'
p2141
tp2142
a(S'gajar ka halwa'
p2143
S'119'
p2144
tp2145
a(S'moong dal ka halwa'
p2146
S'119'
p2147
tp2148
a(S'ras gulla 2 pcs'
p2149
S'59'
p2150
tp2151
a(S'ras gulla 1 pcs'
p2152
S'29'
p2153
tp2154
a(S'mineral water'
p2155
S'39'
p2156
tp2157
a(S'malpoa with rabdi'
p2158
S'129'
p2159
tp2160
atp2161
sS'58818'
p2162
(S'4.7'
p2163
(lp2164
(S'Chocolat Belge '
p2165
S'120'
p2166
tp2167
a(S'Go Nuts '
p2168
S'120'
p2169
tp2170
a(S'Gold Maple Syrup'
p2171
S'110'
p2172
tp2173
a(S'Saure Icing Sugar'
p2174
S'70'
p2175
tp2176
a(S'Dollop Ice Cream'
p2177
S'100'
p2178
tp2179
a(S'Chantilly Whipped Cream'
p2180
S'110'
p2181
tp2182
a(S'saure Icing Sugar'
p2183
S'140'
p2184
tp2185
a(S'Blush'
p2186
S'190'
p2187
tp2188
a(S'Mikado'
p2189
S'150'
p2190
tp2191
a(S'Winter Blast'
p2192
S'150'
p2193
tp2194
a(S'Fruit Melba'
p2195
S'230'
p2196
tp2197
a(S'Go Bananas '
p2198
S'170'
p2199
tp2200
a(S'Nutcase'
p2201
S'170'
p2202
tp2203
atp2204
s.