(dp0
S'52282'
p1
S'Indian Coffee house'
p2
sS'58646'
p3
S'Sri laxmi venkatesh coffee bar'
p4
sS'18278230'
p5
S'kopper kadai'
p6
sS'52098'
p7
S"Brahmin's Coffee bar"
p8
sS'58698'
p9
S'mamagoto'
p10
sS'18375545'
p11
S"Chetty's Coffee"
p12
sS'61111'
p13
S'Milano ice cream'
p14
sS'52459'
p15
S'Shri Sagar'
p16
sS'58243'
p17
S'Tim Tai'
p18
sS'58576'
p19
S'Taaza Thindi'
p20
sS'58786'
p21
S'Kesariya'
p22
sS'51065'
p23
S'Vidyarthi Bhavan'
p24
sS'57141'
p25
S"Kapoor's cafe"
p26
sS'52228'
p27
S'Punjab grill'
p28
sS'51490'
p29
S'Dal tadkaa'
p30
sS'58818'
p31
S'Belgyum'
p32
s.