(dp0
S'52282'
p1
(dp2
S'things'
p3
(lp4
I1
aF3.5
asS'summer'
p5
(lp6
I1
aF3.0
asS'money'
p7
(lp8
I1
aF3.0
asS'dosa'
p9
(lp10
I1
aF1.0
asS'meal'
p11
(lp12
I1
aF1.0
asS'years'
p13
(lp14
I1
aF3.5
asS'course'
p15
(lp16
I2
aF8.0
asS'isnt'
p17
(lp18
I1
aF2.5
asS'looks'
p19
(lp20
I1
aF3.5
asS'cucumber sandwich'
p21
(lp22
I1
aF4.0
asS'lemon juice instead.the'
p23
(lp24
I1
aF4.0
asS'fine'
p25
(lp26
I1
aF2.5
asS'decade'
p27
(lp28
I1
aF3.0
asS'communist leader a. k. gopalan'
p29
(lp30
I2
aF8.0
asS'india coffee house chain'
p31
(lp32
I2
aF8.0
asS'menu'
p33
(lp34
I1
aF1.0
asS'workers'
p35
(lp36
I2
aF8.0
asS'point'
p37
(lp38
I1
aF4.0
asS'kerala'
p39
(lp40
I3
aF11.0
asS'feel'
p41
(lp42
I1
aF3.0
asS'going'
p43
(lp44
I1
aF4.0
asS'location'
p45
(lp46
I3
aF10.5
asS'ambience'
p47
(lp48
I4
aF13.0
asS'smile'
p49
(lp50
I1
aF4.0
asS'weeks'
p51
(lp52
I1
aF3.5
asS'societies'
p53
(lp54
I2
aF8.0
asS'decades'
p55
(lp56
I1
aF2.5
asS'worth'
p57
(lp58
I1
aF3.0
asS'waiters'
p59
(lp60
I5
aF16.0
asS'coffee'
p61
(lp62
I10
aF32.5
asS'chennai'
p63
(lp64
I1
aF4.0
asS'combination'
p65
(lp66
I1
aF3.0
asS'government'
p67
(lp68
I1
aF3.0
asS'food'
p69
(lp70
I6
aF20.0
asS'delhi'
p71
(lp72
I2
aF8.0
asS'school'
p73
(lp74
I1
aF3.5
asS'lunch'
p75
(lp76
I1
aF1.0
asS'jiffy'
p77
(lp78
I1
aF4.5
asS'outlet'
p79
(lp80
I3
aF12.5
asS'coffee board'
p81
(lp82
I2
aF8.0
asS'hearing'
p83
(lp84
I1
aF3.0
asS'chutney'
p85
(lp86
I1
aF4.0
asS'furniture'
p87
(lp88
I4
aF15.0
asS'restaurant chain'
p89
(lp90
I2
aF8.0
asS'heaven'
p91
(lp92
I1
aF4.0
asS'ditto'
p93
(lp94
I1
aF3.5
asS'south indian hotels'
p95
(lp96
I1
aF3.5
asS'morning'
p97
(lp98
I1
aF3.5
asS'mighty uniforms'
p99
(lp100
I1
aF3.5
asS'cutlet'
p101
(lp102
I1
aF3.0
asS'either'
p103
(lp104
I1
aF3.5
asS'lack etiquette'
p105
(lp106
I1
aF3.0
asS'cutlet n dosas'
p107
(lp108
I1
aF2.5
asS'restaurants'
p109
(lp110
I2
aF7.0
asS'seniors'
p111
(lp112
I1
aF4.0
asS'right'
p113
(lp114
I1
aF3.5
asS'series'
p115
(lp116
I2
aF8.0
asS'ambiance'
p117
(lp118
I2
aF4.0
asS'idea'
p119
(lp120
I2
aF8.0
asS'society'
p121
(lp122
I1
aF3.0
asS'elements'
p123
(lp124
I1
aF2.5
asS'place spoilt'
p125
(lp126
I1
aF1.0
asS'mutton cutlet'
p127
(lp128
I1
aF3.0
asS'server'
p129
(lp130
I1
aF3.5
asS'vada'
p131
(lp132
I1
aF3.0
asS'mutton'
p133
(lp134
I1
aF4.5
asS'capacity'
p135
(lp136
I1
aF3.0
asS'network'
p137
(lp138
I2
aF8.0
asS'madras'
p139
(lp140
I1
aF4.0
asS'decision'
p141
(lp142
I1
aF1.0
asS'quality'
p143
(lp144
I1
aF3.0
asS'bangalore.this place'
p145
(lp146
I1
aF3.5
asS'hand wash area'
p147
(lp148
I1
aF1.0
asS'im sure'
p149
(lp150
I1
aF3.0
asS'mother societies'
p151
(lp152
I1
aF4.0
asS'yeps'
p153
(lp154
I1
aF4.0
asS'price'
p155
(lp156
I3
aF7.0
asS'movement'
p157
(lp158
I2
aF8.0
asS'mutton cutlets'
p159
(lp160
I1
aF3.0
asS'august'
p161
(lp162
I2
aF8.0
asS'church street'
p163
(lp164
I1
aF3.0
asS'bangaloreans'
p165
(lp166
I1
aF3.0
asS'vintage establishment'
p167
(lp168
I1
aF4.0
asS'mood'
p169
(lp170
I1
aF1.0
asS'others'
p171
(lp172
I1
aF3.0
asS'resurrection'
p173
(lp174
I1
aF3.0
asS'bangalore'
p175
(lp176
I3
aF11.0
asS'sophistication'
p177
(lp178
I1
aF2.5
asS'change'
p179
(lp180
I2
aF8.0
asS'wait'
p181
(lp182
I1
aF4.0
asS'water'
p183
(lp184
I1
aF3.0
asS'restaurant'
p185
(lp186
I2
aF5.5
asS'waiter'
p187
(lp188
I1
aF4.5
asS'items'
p189
(lp190
I1
aF4.5
asS'days'
p191
(lp192
I2
aF7.0
asS'experience'
p193
(lp194
I2
aF7.5
asS'times'
p195
(lp196
I2
aF6.5
asS'thing'
p197
(lp198
I1
aF3.0
asS'place'
p199
(lp200
I14
aF48.5
asS'hence'
p201
(lp202
I1
aF1.0
asS'opinion'
p203
(lp204
I1
aF4.5
asS'sunday morning'
p205
(lp206
I1
aF3.0
asS'weekends'
p207
(lp208
I1
aF4.0
asS'road'
p209
(lp210
I1
aF3.0
asS'coffee didnt disappoint'
p211
(lp212
I1
aF4.0
asS'whats'
p213
(lp214
I1
aF4.0
asS'dont'
p215
(lp216
I1
aF4.5
asS'coffee houses'
p217
(lp218
I2
aF8.0
asS'presence'
p219
(lp220
I2
aF8.0
asS'pocket friendly.however'
p221
(lp222
I1
aF4.0
asS'! value'
p223
(lp224
I1
aF3.0
asS'servers'
p225
(lp226
I3
aF11.0
asS'nothing'
p227
(lp228
I1
aF3.5
asS'tempered.try'
p229
(lp230
I1
aF3.0
asS'student type'
p231
(lp232
I1
aF3.0
asS'table'
p233
(lp234
I1
aF4.0
asS'bombay'
p235
(lp236
I2
aF8.0
asS'toasts'
p237
(lp238
I1
aF3.0
asS'dont try'
p239
(lp240
I1
aF2.5
asS'coffee house'
p241
(lp242
I4
aF15.0
asS'service'
p243
(lp244
I5
aF15.5
asS'area'
p245
(lp246
I1
aF4.5
asS'introduction'
p247
(lp248
I2
aF8.5
asS'decent'
p249
(lp250
I1
aF3.0
asS'visit'
p251
(lp252
I1
aF4.5
asS'place doesnt'
p253
(lp254
I1
aF3.0
asS'taste'
p255
(lp256
I6
aF17.5
asS'doubt'
p257
(lp258
I1
aF3.5
asS'bengaluru'
p259
(lp260
I1
aF4.0
asS'memory'
p261
(lp262
I1
aF4.0
asS'eggs items'
p263
(lp264
I1
aF4.5
asS'care'
p265
(lp266
I1
aF3.0
asS'cold coffee'
p267
(lp268
I2
aF7.5
asS'today'
p269
(lp270
I1
aF4.0
asS'board'
p271
(lp272
I2
aF8.0
asS'life'
p273
(lp274
I1
aF3.5
asS'spicy'
p275
(lp276
I1
aF3.0
asS'attitude.the white'
p277
(lp278
I1
aF3.0
asS'upma'
p279
(lp280
I1
aF3.0
asS'tasteless'
p281
(lp282
I1
aF1.0
asS'sunday church'
p283
(lp284
I1
aF3.5
asS'sunshine'
p285
(lp286
I1
aF4.0
asS'worker'
p287
(lp288
I2
aF8.0
asS'charm.we'
p289
(lp290
I1
aF4.0
asS'back'
p291
(lp292
I1
aF4.0
asS'egg omelette'
p293
(lp294
I1
aF3.0
asS'policy'
p295
(lp296
I2
aF8.0
asS'omelet'
p297
(lp298
I1
aF4.0
asS'prices'
p299
(lp300
I2
aF8.0
asS'masala dosa'
p301
(lp302
I4
aF13.5
asS'bangaloreans ..its'
p303
(lp304
I1
aF4.0
asS'kind'
p305
(lp306
I1
aF4.5
asS'word'
p307
(lp308
I1
aF3.5
asS'look'
p309
(lp310
I1
aF3.5
asS'places'
p311
(lp312
I2
aF6.5
asS'south indian food'
p313
(lp314
I1
aF3.0
asS'inside'
p315
(lp316
I1
aF3.5
asS'school ambiance'
p317
(lp318
I1
aF3.0
asS'whoa'
p319
(lp320
I1
aF4.5
asS'while'
p321
(lp322
I1
aF4.0
asS'cost'
p323
(lp324
I1
aF1.0
asS'friend'
p325
(lp326
I1
aF4.5
asS'zomato'
p327
(lp328
I1
aF3.0
asS'minutes'
p329
(lp330
I1
aF3.0
asS'history'
p331
(lp332
I1
aF3.0
asS'omelettes'
p333
(lp334
I3
aF10.5
asS'uniforms'
p335
(lp336
I1
aF3.5
asS'sambar'
p337
(lp338
I1
aF4.0
asS'untidy'
p339
(lp340
I1
aF2.5
asS'coffee workers co-operatives'
p341
(lp342
I2
aF8.0
asS'december'
p343
(lp344
I2
aF8.0
asS'india'
p345
(lp346
I2
aF8.0
asS'simple cafe'
p347
(lp348
I1
aF3.5
asS'breakfast'
p349
(lp350
I1
aF4.0
asS'mins'
p351
(lp352
I1
aF4.0
asS'clothing'
p353
(lp354
I1
aF3.0
asS'filter coffee'
p355
(lp356
I1
aF4.0
asS'anymore'
p357
(lp358
I1
aF3.0
asS'vintage'
p359
(lp360
I1
aF3.5
asS'began'
p361
(lp362
I2
aF8.0
asS'coffeee'
p363
(lp364
I1
aF3.0
asS'very'
p365
(lp366
I1
aF4.5
asS'me..'
p367
(lp368
I1
aF3.5
asS'sandwiches'
p369
(lp370
I1
aF2.5
asS'patrons'
p371
(lp372
I1
aF3.0
asS'hustling'
p373
(lp374
I1
aF3.5
asS'shouldnt look'
p375
(lp376
I1
aF3.5
asS'nice'
p377
(lp378
I1
aF3.5
asS'egg toast'
p379
(lp380
I1
aF4.0
asS'vintage outlet'
p381
(lp382
I1
aF4.5
asS'bonus'
p383
(lp384
I1
aF3.5
asS'eggs'
p385
(lp386
I6
aF24.0
asS'outlets'
p387
(lp388
I3
aF11.0
asS'bangalore coffee house'
p389
(lp390
I1
aF3.0
asS'taste great'
p391
(lp392
I1
aF2.5
asS'veg cutlets'
p393
(lp394
I1
aF3.0
asS'charm'
p395
(lp396
I1
aF3.5
asS'nothing beats'
p397
(lp398
I1
aF4.5
asS'favourite cold kappi'
p399
(lp400
I1
aF3.5
asS'adds'
p401
(lp402
I1
aF3.0
asS'tad sweet'
p403
(lp404
I1
aF4.0
asS'spirits'
p405
(lp406
I1
aF3.0
asS'butter'
p407
(lp408
I1
aF4.0
asS'omelette'
p409
(lp410
I2
aF7.5
asS'coffee cess committee'
p411
(lp412
I2
aF8.0
asS'chai/kappi-thindi place'
p413
(lp414
I1
aF3.5
asS'cutlets'
p415
(lp416
I2
aF7.5
asS'foot'
p417
(lp418
I1
aF4.0
asS'youre'
p419
(lp420
I1
aF4.5
asS'face'
p421
(lp422
I1
aF4.0
asS'sambhar'
p423
(lp424
I1
aF3.0
asS'time'
p425
(lp426
I6
aF21.5
asS'page menu'
p427
(lp428
I1
aF3.5
asS'mg road'
p429
(lp430
I2
aF7.0
asS'travel'
p431
(lp432
I1
aF3.5
assS'58646'
p433
(dp434
S'rating'
p435
(lp436
I1
aF5.0
asS'concept'
p437
(lp438
I1
aF4.5
asS'words'
p439
(lp440
I1
aF5.0
asS'produces'
p441
(lp442
I1
aF4.5
asS'melts'
p443
(lp444
I1
aF4.5
asS'yum masala dosa becoz'
p445
(lp446
I1
aF5.0
asS'dosa'
p447
(lp448
I5
aF22.0
asS'recipe'
p449
(lp450
I1
aF4.0
asS'years'
p451
(lp452
I3
aF14.0
asS'course'
p453
(lp454
I1
aF4.5
asS'isnt'
p455
(lp456
I1
aF5.0
asS'ever'
p457
(lp458
I1
aF4.0
asS'idlies'
p459
(lp460
I1
aF5.0
asS'upkeep'
p461
(lp462
I1
aF4.5
asS'complaints'
p463
(lp464
I1
aF4.5
asS'vadas'
p465
(lp466
I1
aF5.0
asS'vada chutney'
p467
(lp468
I1
aF5.0
asS'veena'
p469
(lp470
I1
aF4.0
asS'stand n eat'
p471
(lp472
I1
aF4.5
asS'hygiene.they'
p473
(lp474
I1
aF4.5
asS'food quality'
p475
(lp476
I1
aF4.5
asS'spite'
p477
(lp478
I2
aF8.5
asS'mother'
p479
(lp480
I1
aF5.0
asS'menu'
p481
(lp482
I5
aF22.5
asS'point'
p483
(lp484
I2
aF9.0
asS'ensure freshness'
p485
(lp486
I1
aF4.0
asS'source'
p487
(lp488
I1
aF4.0
asS'bda park'
p489
(lp490
I1
aF5.0
asS'right ratings'
p491
(lp492
I1
aF4.5
asS'ambience'
p493
(lp494
I3
aF13.5
asS'cross'
p495
(lp496
I1
aF5.0
asS'mysore road'
p497
(lp498
I1
aF4.0
asS'quick bite restaurant'
p499
(lp500
I1
aF4.0
asS'plate'
p501
(lp502
I2
aF9.0
asS'coffee'
p503
(lp504
I4
aF16.5
asS'lack'
p505
(lp506
I1
aF4.0
asS'bsk bda park.masala dosa'
p507
(lp508
I1
aF3.5
asS'food'
p509
(lp510
I8
aF33.5
asS'dope'
p511
(lp512
I1
aF5.0
asS'banashankari'
p513
(lp514
I3
aF14.0
asS'khara baath'
p515
(lp516
I1
aF4.5
asS'self service hotel.they'
p517
(lp518
I1
aF4.5
asS'plate whenever'
p519
(lp520
I1
aF4.0
asS'outlet'
p521
(lp522
I2
aF8.5
asS'slv banashankari-'
p523
(lp524
I1
aF4.5
asS'front'
p525
(lp526
I2
aF8.0
asS'too..'
p527
(lp528
I1
aF4.0
asS'chutney'
p529
(lp530
I13
aF55.0
asS'like'
p531
(lp532
I1
aF4.5
asS'kesari bath'
p533
(lp534
I2
aF7.5
asS'moment idli'
p535
(lp536
I1
aF5.0
asS'sundays'
p537
(lp538
I2
aF10.0
asS'issue'
p539
(lp540
I1
aF3.5
asS'freshness'
p541
(lp542
I1
aF4.5
asS'serves'
p543
(lp544
I1
aF4.0
asS'south indian breakfast items'
p545
(lp546
I2
aF8.0
asS'service quality'
p547
(lp548
I1
aF4.5
asS'item'
p549
(lp550
I1
aF4.0
asS'till date'
p551
(lp552
I1
aF5.0
asS'steps'
p553
(lp554
I1
aF5.0
asS'banashankari crowd'
p555
(lp556
I1
aF4.5
asS'cash counter'
p557
(lp558
I1
aF4.0
asS'seating area'
p559
(lp560
I1
aF4.5
asS'nice'
p561
(lp562
I1
aF4.0
asS'tempts'
p563
(lp564
I1
aF4.5
asS'neighborhood'
p565
(lp566
I1
aF3.5
asS'watering khara bath'
p567
(lp568
I1
aF4.5
asS'people'
p569
(lp570
I2
aF9.5
asS'awlaki bhath'
p571
(lp572
I1
aF5.0
asS'amazing south indian food'
p573
(lp574
I1
aF4.0
asS'khara bath'
p575
(lp576
I2
aF9.5
asS'feel'
p577
(lp578
I1
aF4.0
asS'childhood favorite.they'
p579
(lp580
I1
aF5.0
asS'kitchen'
p581
(lp582
I1
aF5.0
asS'south indian myself'
p583
(lp584
I1
aF4.5
asS'expect'
p585
(lp586
I1
aF4.0
asS'sight'
p587
(lp588
I1
aF5.0
asS'morning'
p589
(lp590
I1
aF4.0
asS'witness'
p591
(lp592
I1
aF5.0
asS'concern'
p593
(lp594
I1
aF4.5
asS'vada'
p595
(lp596
I9
aF38.5
asS'trust'
p597
(lp598
I1
aF5.0
asS'consistency'
p599
(lp600
I1
aF4.5
asS'idli chutney'
p601
(lp602
I2
aF10.0
asS'chutney combination'
p603
(lp604
I1
aF4.0
asS'\xf0\x9f\x91\x8d\xf0\x9f\x8f\xbd\xf0\x9f\x91\x8d\xf0\x9f\x8f\xbd\xf0\x9f\x91\x8d\xf0\x9f\x8f\xbd\xf0\x9f\x91\x8d\xf0\x9f\x8f\xbd\xf0\x9f\x91\x8d\xf0\x9f\x8f\xbd'
p605
(lp606
I1
aF4.0
asS'token'
p607
(lp608
I1
aF4.0
asS'everything'
p609
(lp610
I2
aF9.0
asS'food fresh'
p611
(lp612
I1
aF4.5
asS'decade'
p613
(lp614
I1
aF5.0
asS'place hasnt'
p615
(lp616
I1
aF4.5
asS'tongue'
p617
(lp618
I1
aF5.0
asS'nothing flashy'
p619
(lp620
I1
aF4.5
asS'core'
p621
(lp622
I1
aF4.5
asS'food joint'
p623
(lp624
I1
aF4.0
asS'taste buds'
p625
(lp626
I1
aF5.0
asS'idlys'
p627
(lp628
I1
aF4.5
asS'coffee-tea'
p629
(lp630
I1
aF5.0
asS'idli plate'
p631
(lp632
I1
aF5.0
asS'malleshwaram'
p633
(lp634
I1
aF4.0
asS'hungry kya'
p635
(lp636
I1
aF5.0
asS'south indian restaurant'
p637
(lp638
I1
aF3.5
asS'slv hein na'
p639
(lp640
I1
aF5.0
asS'bangalore'
p641
(lp642
I2
aF9.5
asS'vada lands'
p643
(lp644
I1
aF5.0
asS'stage'
p645
(lp646
I3
aF13.0
asS'south bengaluru'
p647
(lp648
I1
aF4.5
asS'complain'
p649
(lp650
I1
aF4.5
asS'coffee shop'
p651
(lp652
I1
aF3.5
asS'parameters'
p653
(lp654
I1
aF4.5
asS'restaurant'
p655
(lp656
I3
aF13.5
asS'items'
p657
(lp658
I1
aF5.0
asS'cares'
p659
(lp660
I1
aF4.0
asS'days'
p661
(lp662
I1
aF5.0
asS'times'
p663
(lp664
I1
aF4.5
asS'park infron'
p665
(lp666
I1
aF3.5
asS'person'
p667
(lp668
I1
aF4.0
asS'place'
p669
(lp670
I16
aF72.0
asS'weekday'
p671
(lp672
I1
aF5.0
asS'crispiest vada'
p673
(lp674
I1
aF4.0
asS'breakfast place'
p675
(lp676
I1
aF5.0
asS'darshini'
p677
(lp678
I1
aF4.5
asS'road'
p679
(lp680
I1
aF5.0
asS'hygine'
p681
(lp682
I1
aF3.5
asS'love'
p683
(lp684
I1
aF5.0
asS'dont'
p685
(lp686
I1
aF5.0
asS'coffee bar'
p687
(lp688
I1
aF4.5
asS'reasons'
p689
(lp690
I1
aF4.0
asS'mustards'
p691
(lp692
I1
aF4.5
asS'dosas'
p693
(lp694
I1
aF4.5
asS'bath'
p695
(lp696
I1
aF4.5
asS'till'
p697
(lp698
I1
aF5.0
asS'hygiene'
p699
(lp700
I1
aF4.5
asS'everyone'
p701
(lp702
I1
aF5.0
asS'chetni'
p703
(lp704
I1
aF4.5
asS'quality'
p705
(lp706
I3
aF13.5
asS'wada'
p707
(lp708
I1
aF4.0
asS'size'
p709
(lp710
I1
aF4.0
asS'standing'
p711
(lp712
I1
aF4.0
asS'pit stop'
p713
(lp714
I1
aF4.0
asS'do try'
p715
(lp716
I1
aF5.0
asS'crowd'
p717
(lp718
I1
aF4.5
asS'service'
p719
(lp720
I4
aF18.0
asS'simple place'
p721
(lp722
I1
aF3.5
asS'always'
p723
(lp724
I1
aF4.5
asS'friends'
p725
(lp726
I1
aF4.5
asS'night'
p727
(lp728
I1
aF5.0
asS'visit'
p729
(lp730
I1
aF4.0
asS'system'
p731
(lp732
I1
aF4.0
asS'fast'
p733
(lp734
I1
aF5.0
asS'mark'
p735
(lp736
I1
aF4.0
asS'wait.idli'
p737
(lp738
I1
aF5.0
asS'doubt'
p739
(lp740
I1
aF5.0
asS'time'
p741
(lp742
I4
aF18.0
asS'idli-vada'
p743
(lp744
I1
aF4.5
asS'wait'
p745
(lp746
I1
aF5.0
asS'type'
p747
(lp748
I1
aF3.5
asS'buds'
p749
(lp750
I1
aF5.0
asS'head'
p751
(lp752
I1
aF4.5
asS'mornings'
p753
(lp754
I1
aF4.0
asS'upma'
p755
(lp756
I2
aF8.5
asS'doesnt care'
p757
(lp758
I1
aF4.5
asS'ambiance'
p759
(lp760
I1
aF3.5
asS'hotel'
p761
(lp762
I1
aF4.5
asS'park'
p763
(lp764
I1
aF3.5
asS'awesome idli n vada'
p765
(lp766
I1
aF4.5
asS'tokens'
p767
(lp768
I1
aF4.5
asS'eatery'
p769
(lp770
I2
aF9.0
asS'grandpa'
p771
(lp772
I1
aF4.5
asS'excellent'
p773
(lp774
I1
aF4.5
asS'known'
p775
(lp776
I1
aF3.5
asS'masala dosa'
p777
(lp778
I4
aF17.5
asS'south indian food lover'
p779
(lp780
I1
aF4.5
asS'remember'
p781
(lp782
I1
aF4.5
asS'town'
p783
(lp784
I2
aF8.5
asS'myself'
p785
(lp786
I1
aF5.0
asS'kharabath'
p787
(lp788
I2
aF9.0
asS'word'
p789
(lp790
I1
aF4.0
asS'places'
p791
(lp792
I2
aF9.5
asS'south indian food'
p793
(lp794
I2
aF8.0
asS'pocket'
p795
(lp796
I3
aF13.0
asS'tree'
p797
(lp798
I1
aF4.5
asS'anywhere'
p799
(lp800
I1
aF5.0
asS'shops'
p801
(lp802
I1
aF5.0
asS'idili'
p803
(lp804
I1
aF5.0
asS'idli'
p805
(lp806
I6
aF25.5
asS'heart'
p807
(lp808
I1
aF4.5
asS'staff- self servicequantity'
p809
(lp810
I1
aF4.5
asS'sambar'
p811
(lp812
I2
aF8.5
asS'taste'
p813
(lp814
I6
aF26.0
asS'orderd'
p815
(lp816
I1
aF4.0
asS'describe'
p817
(lp818
I1
aF5.0
asS'india'
p819
(lp820
I1
aF5.0
asS'foods'
p821
(lp822
I1
aF4.0
asS'spicy'
p823
(lp824
I1
aF4.5
asS'something'
p825
(lp826
I1
aF3.5
asS'place sunday morning'
p827
(lp828
I1
aF4.5
asS'breakfast'
p829
(lp830
I2
aF8.5
asS'mins'
p831
(lp832
I1
aF4.5
asS'bda complex'
p833
(lp834
I1
aF4.5
asS'that..'
p835
(lp836
I1
aF5.0
asS'idli-vada-chutney'
p837
(lp838
I1
aF4.0
asS'filter coffee'
p839
(lp840
I3
aF13.0
asS'south indian breakfast'
p841
(lp842
I2
aF8.5
asS'left side'
p843
(lp844
I1
aF4.0
asS'dosas.this place'
p845
(lp846
I1
aF4.5
asS'temple gang'
p847
(lp848
I1
aF4.5
asS'sri laxmi venkateswara coffee bar'
p849
(lp850
I1
aF4.0
asS'parks'
p851
(lp852
I1
aF5.0
asS'localities'
p853
(lp854
I1
aF4.5
asS'dowside'
p855
(lp856
I1
aF4.0
asS'prices'
p857
(lp858
I2
aF9.0
asS'-idlivada masala dosakhara bathkesari bathrava idli'
p859
(lp860
I1
aF4.5
asS'perfect formula'
p861
(lp862
I1
aF4.5
asS'devagiri temple'
p863
(lp864
I1
aF4.5
asS'awesome..'
p865
(lp866
I1
aF4.0
asS'couple'
p867
(lp868
I1
aF4.5
asS'try idli'
p869
(lp870
I1
aF4.5
asS'lazy sunday breakfast'
p871
(lp872
I1
aF4.5
asS'enjoy masala dosa'
p873
(lp874
I1
aF5.0
asS'killer'
p875
(lp876
I1
aF5.0
asS'signature dish'
p877
(lp878
I1
aF5.0
asS'price'
p879
(lp880
I3
aF13.0
asS'try.price'
p881
(lp882
I1
aF3.5
asS'outlets'
p883
(lp884
I1
aF4.0
asS'hand'
p885
(lp886
I1
aF4.5
asS'birthday'
p887
(lp888
I1
aF4.5
asS'mouth'
p889
(lp890
I3
aF14.0
asS'nothing'
p891
(lp892
I2
aF8.5
asS'footpath'
p893
(lp894
I1
aF4.5
asS'opportunity'
p895
(lp896
I1
aF4.0
asS'class'
p897
(lp898
I1
aF4.5
asS'butter'
p899
(lp900
I1
aF4.5
asS'u enter'
p901
(lp902
I1
aF4.0
asS'dishes'
p903
(lp904
I1
aF4.0
asS'sambar-'
p905
(lp906
I1
aF4.5
asS'whenever'
p907
(lp908
I1
aF5.0
asS'n come'
p909
(lp910
I1
aF5.0
asS'sambhar'
p911
(lp912
I1
aF4.0
asS'nice place'
p913
(lp914
I1
aF4.0
asS'coffee shopes'
p915
(lp916
I1
aF3.5
asS'food item'
p917
(lp918
I1
aF4.0
asS'cleanliness'
p919
(lp920
I1
aF4.0
asS'blend'
p921
(lp922
I1
aF3.5
asS'order'
p923
(lp924
I2
aF8.5
assS'18278230'
p925
(dp926
S'rating'
p927
(lp928
I1
aF4.0
asS'wasnt anything'
p929
(lp930
I1
aF1.0
asS'affair'
p931
(lp932
I1
aF1.0
asS'i feel'
p933
(lp934
I1
aF3.0
asS'show'
p935
(lp936
I2
aF5.0
asS'numbers'
p937
(lp938
I1
aF3.0
asS'money'
p939
(lp940
I2
aF7.0
asS'stove'
p941
(lp942
I2
aF5.0
asS'mains'
p943
(lp944
I1
aF3.0
asS'dine'
p945
(lp946
I2
aF2.0
asS'chaos'
p947
(lp948
I1
aF1.0
asS'nice music'
p949
(lp950
I1
aF3.5
asS'course'
p951
(lp952
I3
aF9.0
asS'concept'
p953
(lp954
I1
aF3.0
asS'looks'
p955
(lp956
I2
aF5.0
asS'outside part'
p957
(lp958
I1
aF3.5
asS'lassi'
p959
(lp960
I1
aF5.0
asS'chicken'
p961
(lp962
I2
aF4.0
asS'captain'
p963
(lp964
I3
aF5.5
asS'staff'
p965
(lp966
I4
aF9.0
asS'slot'
p967
(lp968
I2
aF2.0
asS'yummy'
p969
(lp970
I1
aF4.5
asS'steward brijay'
p971
(lp972
I1
aF3.5
asS'menu'
p973
(lp974
I2
aF5.0
asS'rotis'
p975
(lp976
I1
aF3.5
asS'point'
p977
(lp978
I1
aF5.0
asS'dinner time'
p979
(lp980
I2
aF2.0
asS'complain'
p981
(lp982
I1
aF1.0
asS'starters'
p983
(lp984
I6
aF16.5
asS'theme'
p985
(lp986
I1
aF4.0
asS'post boxes'
p987
(lp988
I2
aF2.0
asS'boneless'
p989
(lp990
I1
aF1.0
asS'ambience'
p991
(lp992
I9
aF30.0
asS'white bread'
p993
(lp994
I1
aF2.5
asS'rice'
p995
(lp996
I1
aF3.0
asS'presentation'
p997
(lp998
I8
aF25.5
asS'someone'
p999
(lp1000
I2
aF2.0
asS'tad bit pricey'
p1001
(lp1002
I1
aF4.0
asS'checking'
p1003
(lp1004
I1
aF3.0
asS'challi kolmi kabab'
p1005
(lp1006
I1
aF3.5
asS'e dastaan'
p1007
(lp1008
I1
aF3.5
asS'choice'
p1009
(lp1010
I1
aF1.5
asS'mention'
p1011
(lp1012
I1
aF4.0
asS'feels'
p1013
(lp1014
I1
aF3.0
asS'tasty.dahi bada'
p1015
(lp1016
I1
aF3.0
asS'cook'
p1017
(lp1018
I2
aF5.0
asS'sinus'
p1019
(lp1020
I2
aF2.0
asS'chutney'
p1021
(lp1022
I1
aF4.0
asS'condition'
p1023
(lp1024
I1
aF1.0
asS'lucknowi dahi ki shammi'
p1025
(lp1026
I3
aF8.5
asS'wellsoup'
p1027
(lp1028
I1
aF3.0
asS'trucks'
p1029
(lp1030
I1
aF5.0
asS'colddeserts options'
p1031
(lp1032
I1
aF3.0
asS'keshariya lassi'
p1033
(lp1034
I1
aF3.5
asS'off day'
p1035
(lp1036
I1
aF3.0
asS'wait'
p1037
(lp1038
I1
aF4.0
asS'ab kopper kadai ka number'
p1039
(lp1040
I2
aF5.0
asS'food starter'
p1041
(lp1042
I2
aF5.0
asS'welcome change amongst'
p1043
(lp1044
I1
aF3.5
asS'mode'
p1045
(lp1046
I1
aF3.5
asS'courteous..'
p1047
(lp1048
I1
aF3.5
asS'team'
p1049
(lp1050
I1
aF2.0
asS'.one thing'
p1051
(lp1052
I1
aF3.5
asS'promise'
p1053
(lp1054
I2
aF5.0
asS'postbox'
p1055
(lp1056
I1
aF4.0
asS'bills'
p1057
(lp1058
I2
aF2.0
asS'side'
p1059
(lp1060
I4
aF13.0
asS'husband'
p1061
(lp1062
I1
aF1.0
asS'restaurants'
p1063
(lp1064
I3
aF8.5
asS'says'
p1065
(lp1066
I1
aF4.5
asS'grub'
p1067
(lp1068
I1
aF3.5
asS'people'
p1069
(lp1070
I1
aF1.0
asS'naan'
p1071
(lp1072
I1
aF2.5
asS'ambiance'
p1073
(lp1074
I2
aF8.0
asS'mughlai place..'
p1075
(lp1076
I1
aF3.5
asS'narrow lane'
p1077
(lp1078
I1
aF3.5
asS'pics'
p1079
(lp1080
I1
aF4.5
asS'chef'
p1081
(lp1082
I2
aF5.0
asS'flavours'
p1083
(lp1084
I3
aF6.5
asS'toes'
p1085
(lp1086
I1
aF4.0
asS'verkha singh\xe2\x80\x99s'
p1087
(lp1088
I2
aF5.0
asS'table'
p1089
(lp1090
I2
aF5.0
asS'kopper kadai.good thing'
p1091
(lp1092
I2
aF3.0
asS'drinks'
p1093
(lp1094
I1
aF4.0
asS'setup'
p1095
(lp1096
I1
aF1.0
asS'stood'
p1097
(lp1098
I1
aF3.5
asS'review'
p1099
(lp1100
I4
aF8.5
asS'welcome drink'
p1101
(lp1102
I1
aF3.0
asS'koramangla'
p1103
(lp1104
I1
aF5.0
asS'experiment'
p1105
(lp1106
I1
aF4.5
asS'harey masale key kofte'
p1107
(lp1108
I1
aF4.0
asS'smells'
p1109
(lp1110
I2
aF2.0
asS'noise reduction'
p1111
(lp1112
I1
aF1.0
asS'price'
p1113
(lp1114
I1
aF3.0
asS'meal'
p1115
(lp1116
I1
aF4.5
asS'blowing'
p1117
(lp1118
I1
aF5.0
asS'brownie points'
p1119
(lp1120
I2
aF5.0
asS'utensil'
p1121
(lp1122
I1
aF3.5
asS'kesari lassi.food'
p1123
(lp1124
I1
aF5.0
asS'kathiawari tarkari wasnt'
p1125
(lp1126
I1
aF3.5
asS'water'
p1127
(lp1128
I3
aF6.0
asS'difficulty'
p1129
(lp1130
I2
aF2.0
asS'kabab'
p1131
(lp1132
I1
aF1.0
asS'ambiencemain course'
p1133
(lp1134
I1
aF3.0
asS'mughlai names'
p1135
(lp1136
I1
aF3.5
asS'bangalore'
p1137
(lp1138
I2
aF5.0
asS') .then'
p1139
(lp1140
I1
aF4.0
asS'care'
p1141
(lp1142
I2
aF5.0
asS'search'
p1143
(lp1144
I2
aF5.0
asS'kids'
p1145
(lp1146
I1
aF1.0
asS'anything'
p1147
(lp1148
I1
aF4.0
asS'restaurant'
p1149
(lp1150
I6
aF19.0
asS'items'
p1151
(lp1152
I2
aF3.5
asS'vegetarian'
p1153
(lp1154
I1
aF1.0
asS'privacy'
p1155
(lp1156
I1
aF3.0
asS'experience'
p1157
(lp1158
I5
aF12.0
asS'steward'
p1159
(lp1160
I2
aF5.0
asS'thing'
p1161
(lp1162
I3
aF6.5
asS'place'
p1163
(lp1164
I8
aF24.0
asS'stand'
p1165
(lp1166
I1
aF4.0
asS'cousins'
p1167
(lp1168
I1
aF3.0
asS'team lunch'
p1169
(lp1170
I1
aF3.0
asS'glasses'
p1171
(lp1172
I1
aF4.0
asS'options'
p1173
(lp1174
I1
aF2.0
asS'burning charcoal'
p1175
(lp1176
I2
aF2.0
asS'otherwise'
p1177
(lp1178
I1
aF3.0
asS'.the ambience'
p1179
(lp1180
I1
aF3.5
asS'serving dishes'
p1181
(lp1182
I1
aF3.5
asS'compromising'
p1183
(lp1184
I1
aF4.5
asS'presentation style'
p1185
(lp1186
I1
aF5.0
asS'deputy'
p1187
(lp1188
I2
aF5.0
asS'wednesday evening'
p1189
(lp1190
I2
aF5.0
asS'tamatar vadi ka shorba'
p1191
(lp1192
I1
aF3.5
asS'raita'
p1193
(lp1194
I1
aF3.5
asS'repair/rework'
p1195
(lp1196
I2
aF5.0
asS'bland'
p1197
(lp1198
I3
aF7.0
asS'sugarcane chicken'
p1199
(lp1200
I1
aF4.0
asS'quality'
p1201
(lp1202
I4
aF11.0
asS'price absolute barbeque'
p1203
(lp1204
I1
aF3.0
asS'restaurant serene'
p1205
(lp1206
I1
aF4.0
asS'goodcons'
p1207
(lp1208
I1
aF3.0
asS'average.'
p1209
(lp1210
I1
aF1.5
asS'story'
p1211
(lp1212
I2
aF9.5
asS'ghee rice'
p1213
(lp1214
I1
aF3.5
asS'better option'
p1215
(lp1216
I1
aF3.0
asS'fascinating'
p1217
(lp1218
I1
aF1.5
asS'service'
p1219
(lp1220
I3
aF8.0
asS'good north indian food'
p1221
(lp1222
I2
aF5.0
asS'segment'
p1223
(lp1224
I2
aF2.0
asS'vacation'
p1225
(lp1226
I2
aF5.0
asS'starters paneer tikka'
p1227
(lp1228
I1
aF3.0
asS'food.its'
p1229
(lp1230
I1
aF4.0
asS'treat'
p1231
(lp1232
I1
aF5.0
asS'stars'
p1233
(lp1234
I1
aF3.0
asS'months'
p1235
(lp1236
I2
aF2.0
asS'airy'
p1237
(lp1238
I1
aF3.5
asS'yoghurt'
p1239
(lp1240
I1
aF3.5
asS'entrance'
p1241
(lp1242
I2
aF2.0
asS'spicy'
p1243
(lp1244
I1
aF4.0
asS'north'
p1245
(lp1246
I2
aF3.0
asS'excellent job'
p1247
(lp1248
I1
aF4.0
asS'skewers'
p1249
(lp1250
I1
aF1.0
asS'hotel'
p1251
(lp1252
I1
aF3.5
asS'serve'
p1253
(lp1254
I1
aF3.5
asS'paneer'
p1255
(lp1256
I3
aF6.0
asS'kitchen'
p1257
(lp1258
I3
aF6.0
asS'lot better'
p1259
(lp1260
I1
aF1.5
asS'cart wheels/ charpouy'
p1261
(lp1262
I2
aF2.0
asS'folks'
p1263
(lp1264
I2
aF5.0
asS'reading rave reviews'
p1265
(lp1266
I2
aF2.0
asS'adult'
p1267
(lp1268
I1
aF1.0
asS'challi komi kebab'
p1269
(lp1270
I1
aF3.5
asS'prices'
p1271
(lp1272
I1
aF4.5
asS'eyes..'
p1273
(lp1274
I1
aF4.0
asS'goblets'
p1275
(lp1276
I2
aF2.0
asS'customer'
p1277
(lp1278
I2
aF3.0
asS'end impression'
p1279
(lp1280
I1
aF1.0
asS'kind'
p1281
(lp1282
I1
aF4.0
asS'deepchand'
p1283
(lp1284
I1
aF3.5
asS'word'
p1285
(lp1286
I1
aF1.0
asS'koramangala'
p1287
(lp1288
I2
aF2.0
asS'interiors'
p1289
(lp1290
I1
aF3.5
asS'bill'
p1291
(lp1292
I1
aF4.0
asS'chicken lollipop'
p1293
(lp1294
I1
aF3.5
asS'lound noise'
p1295
(lp1296
I2
aF3.0
asS'preparation'
p1297
(lp1298
I2
aF3.0
asS'soup'
p1299
(lp1300
I2
aF3.0
asS'signature starter'
p1301
(lp1302
I1
aF3.5
asS'papad'
p1303
(lp1304
I1
aF4.0
asS'neat'
p1305
(lp1306
I1
aF3.5
asS'masala'
p1307
(lp1308
I1
aF3.0
asS'zomato'
p1309
(lp1310
I1
aF2.0
asS'problem'
p1311
(lp1312
I1
aF3.0
asS'pricing'
p1313
(lp1314
I1
aF3.5
asS'non veg'
p1315
(lp1316
I1
aF3.0
asS'kachumber'
p1317
(lp1318
I1
aF3.5
asS'adults'
p1319
(lp1320
I1
aF1.0
asS'taste'
p1321
(lp1322
I5
aF13.5
asS'.ambience :4.5/5service :4.5/5food'
p1323
(lp1324
I1
aF3.5
asS'manager mr vivek'
p1325
(lp1326
I1
aF5.0
asS'medium'
p1327
(lp1328
I2
aF2.0
asS'something'
p1329
(lp1330
I1
aF4.0
asS'miniature'
p1331
(lp1332
I2
aF2.0
asS'food.soup dal e danhiya'
p1333
(lp1334
I2
aF3.0
asS'concentration'
p1335
(lp1336
I2
aF3.0
asS'mins'
p1337
(lp1338
I1
aF3.0
asS'cuisine'
p1339
(lp1340
I1
aF4.0
asS'tad late'
p1341
(lp1342
I2
aF2.0
asS'wholesome'
p1343
(lp1344
I1
aF3.5
asS'food.but sorry'
p1345
(lp1346
I2
aF3.0
asS'staters'
p1347
(lp1348
I1
aF3.5
asS'tandoor'
p1349
(lp1350
I2
aF2.0
asS'whereas'
p1351
(lp1352
I1
aF3.5
asS'thumbs'
p1353
(lp1354
I1
aF4.5
asS'options.. serving style'
p1355
(lp1356
I1
aF1.5
asS'food'
p1357
(lp1358
I15
aF48.5
asS'less.pros'
p1359
(lp1360
I1
aF3.0
asS'something worth'
p1361
(lp1362
I1
aF4.0
asS'shorba'
p1363
(lp1364
I1
aF3.5
asS'letterbox'
p1365
(lp1366
I1
aF5.0
asS'smell'
p1367
(lp1368
I2
aF2.0
asS'horror'
p1369
(lp1370
I1
aF1.0
asS'slow.. food'
p1371
(lp1372
I1
aF1.5
asS'either'
p1373
(lp1374
I1
aF1.0
asS'week'
p1375
(lp1376
I1
aF3.0
asS'gravy'
p1377
(lp1378
I2
aF5.0
asS'strips'
p1379
(lp1380
I1
aF1.0
asS'favourite'
p1381
(lp1382
I1
aF5.0
asS'buttery'
p1383
(lp1384
I1
aF2.5
asS'takatak paneer tikka'
p1385
(lp1386
I1
aF3.5
asS'dahi ki shammi'
p1387
(lp1388
I1
aF3.5
asS'friends'
p1389
(lp1390
I1
aF3.0
asS'buffet'
p1391
(lp1392
I1
aF4.5
asS'hand'
p1393
(lp1394
I2
aF5.0
asS'value'
p1395
(lp1396
I1
aF3.0
asS'miniature truck'
p1397
(lp1398
I1
aF3.5
asS'chass.bill'
p1399
(lp1400
I1
aF5.0
asS'service.menu'
p1401
(lp1402
I1
aF5.0
asS'daalcha'
p1403
(lp1404
I1
aF3.5
asS'weekend'
p1405
(lp1406
I1
aF1.5
asS'butter'
p1407
(lp1408
I1
aF3.0
asS'attempt'
p1409
(lp1410
I2
aF5.0
asS'dishes'
p1411
(lp1412
I1
aF4.5
asS'joint'
p1413
(lp1414
I1
aF5.0
asS'variety'
p1415
(lp1416
I1
aF4.0
asS'request'
p1417
(lp1418
I1
aF5.0
asS'photos'
p1419
(lp1420
I1
aF3.5
asS'face'
p1421
(lp1422
I2
aF5.0
asS'chicken malai kabab'
p1423
(lp1424
I1
aF3.0
asS'portion'
p1425
(lp1426
I1
aF1.0
asS'saturday evening though..'
p1427
(lp1428
I1
aF3.5
asS'( mutton'
p1429
(lp1430
I1
aF3.0
asS'presenting'
p1431
(lp1432
I1
aF4.0
asS'time'
p1433
(lp1434
I5
aF14.5
asS'great..'
p1435
(lp1436
I1
aF1.5
asS'food stylist'
p1437
(lp1438
I1
aF1.0
asS'notch'
p1439
(lp1440
I1
aF3.0
asS'deserts'
p1441
(lp1442
I1
aF2.0
asS'quantity'
p1443
(lp1444
I3
aF6.0
assS'58786'
p1445
(dp1446
S'kadhi'
p1447
(lp1448
I1
aF4.5
asS'marwaris'
p1449
(lp1450
I1
aF5.0
asS'kesariya balam aao ni'
p1451
(lp1452
I1
aF4.0
asS'money'
p1453
(lp1454
I3
aF11.0
asS'jp nagar'
p1455
(lp1456
I1
aF4.5
asS'chutney baby corn pakoda black channa curry imli juice sweets'
p1457
(lp1458
I1
aF5.0
asS'course'
p1459
(lp1460
I4
aF18.0
asS'baati'
p1461
(lp1462
I1
aF4.5
asS'katori chaat'
p1463
(lp1464
I1
aF4.0
asS'touch'
p1465
(lp1466
I1
aF5.0
asS'whats'
p1467
(lp1468
I1
aF4.5
asS'staff'
p1469
(lp1470
I6
aF26.5
asS'perfect'
p1471
(lp1472
I1
aF5.0
asS'deserts'
p1473
(lp1474
I1
aF5.0
asS'cousins'
p1475
(lp1476
I2
aF10.0
asS'explain'
p1477
(lp1478
I1
aF4.0
asS'appetizers'
p1479
(lp1480
I1
aF4.0
asS'amazing'
p1481
(lp1482
I1
aF5.0
asS'it\xe2\x80\x99s'
p1483
(lp1484
I2
aF9.5
asS'starters'
p1485
(lp1486
I6
aF23.5
asS'spread'
p1487
(lp1488
I1
aF4.0
asS'ghee'
p1489
(lp1490
I1
aF5.0
asS'ambience'
p1491
(lp1492
I10
aF34.5
asS'proper rajasthani cuisine'
p1493
(lp1494
I1
aF4.5
asS'worth'
p1495
(lp1496
I1
aF4.5
asS'marwari meals'
p1497
(lp1498
I1
aF5.0
asS'range'
p1499
(lp1500
I1
aF4.5
asS'nice presentation'
p1501
(lp1502
I1
aF3.5
asS'vegetarian place'
p1503
(lp1504
I1
aF4.5
asS'food'
p1505
(lp1506
I17
aF65.5
asS'dessert'
p1507
(lp1508
I1
aF5.0
asS'couple'
p1509
(lp1510
I1
aF5.0
asS'silver thali'
p1511
(lp1512
I1
aF4.5
asS'lunch'
p1513
(lp1514
I2
aF9.0
asS'boxes'
p1515
(lp1516
I1
aF3.5
asS'rajasthani outlets'
p1517
(lp1518
I1
aF4.0
asS'chaat festival'
p1519
(lp1520
I1
aF5.0
asS'background'
p1521
(lp1522
I1
aF5.0
asS'rajasthan'
p1523
(lp1524
I2
aF10.0
asS'ambience.its'
p1525
(lp1526
I1
aF5.0
asS'rabri'
p1527
(lp1528
I1
aF2.5
asS'silver'
p1529
(lp1530
I2
aF9.0
asS'rajasthani style tasty dishes'
p1531
(lp1532
I1
aF4.5
asS'cool'
p1533
(lp1534
I1
aF4.0
asS'wont'
p1535
(lp1536
I1
aF3.5
asS'dusshera'
p1537
(lp1538
I1
aF4.0
asS'silver plates'
p1539
(lp1540
I2
aF7.5
asS'name'
p1541
(lp1542
I1
aF5.0
asS'desserts'
p1543
(lp1544
I1
aF5.0
asS'time visit'
p1545
(lp1546
I1
aF2.5
asS'twice'
p1547
(lp1548
I1
aF5.0
asS'architecture'
p1549
(lp1550
I1
aF5.0
asS'meal'
p1551
(lp1552
I4
aF18.5
asS'restaurants'
p1553
(lp1554
I1
aF5.0
asS'everyone'
p1555
(lp1556
I1
aF4.5
asS'people'
p1557
(lp1558
I1
aF4.0
asS'rajathani cuisine'
p1559
(lp1560
I1
aF5.0
asS'ambiance'
p1561
(lp1562
I3
aF12.5
asS'chaat section'
p1563
(lp1564
I1
aF4.5
asS'home'
p1565
(lp1566
I2
aF9.5
asS'darbaar'
p1567
(lp1568
I1
aF4.5
asS'rest everything'
p1569
(lp1570
I1
aF4.5
asS'welcome drinks'
p1571
(lp1572
I1
aF5.0
asS'doll display'
p1573
(lp1574
I1
aF5.0
asS'excellent spread'
p1575
(lp1576
I1
aF4.0
asS'lots'
p1577
(lp1578
I2
aF9.5
asS'everything'
p1579
(lp1580
I1
aF4.0
asS'loves'
p1581
(lp1582
I1
aF4.5
asS'paradise'
p1583
(lp1584
I1
aF5.0
asS'good.starters'
p1585
(lp1586
I1
aF1.0
asS'subzi'
p1587
(lp1588
I1
aF4.5
asS'staffs'
p1589
(lp1590
I1
aF4.5
asS'thali'
p1591
(lp1592
I3
aF15.0
asS'variety food..'
p1593
(lp1594
I1
aF4.0
asS'dum biryani'
p1595
(lp1596
I1
aF5.0
asS'taste buds'
p1597
(lp1598
I1
aF4.0
asS'south indian'
p1599
(lp1600
I1
aF3.5
asS'pure vegetarian'
p1601
(lp1602
I1
aF5.0
asS'terrace'
p1603
(lp1604
I1
aF3.5
asS'cockroach'
p1605
(lp1606
I1
aF1.0
asS'hours'
p1607
(lp1608
I1
aF1.0
asS'n spend time'
p1609
(lp1610
I1
aF5.0
asS'buffet'
p1611
(lp1612
I1
aF3.5
asS'chaats'
p1613
(lp1614
I1
aF4.5
asS'consideration'
p1615
(lp1616
I1
aF4.0
asS'bangalore'
p1617
(lp1618
I1
aF5.0
asS'main course'
p1619
(lp1620
I1
aF1.0
asS'sister'
p1621
(lp1622
I1
aF4.5
asS'restaurant'
p1623
(lp1624
I2
aF10.0
asS'items'
p1625
(lp1626
I2
aF8.5
asS'house'
p1627
(lp1628
I1
aF4.0
asS'experience'
p1629
(lp1630
I7
aF21.5
asS'times'
p1631
(lp1632
I1
aF3.5
asS'thing'
p1633
(lp1634
I2
aF9.5
asS'delicacies'
p1635
(lp1636
I1
aF5.0
asS'place'
p1637
(lp1638
I10
aF40.5
asS'weekday'
p1639
(lp1640
I1
aF4.5
asS'menu'
p1641
(lp1642
I2
aF8.0
asS'family lunch'
p1643
(lp1644
I1
aF2.5
asS'rajasthani'
p1645
(lp1646
I1
aF5.0
asS'dal bhati'
p1647
(lp1648
I1
aF1.0
asS'rajasthani delicacy'
p1649
(lp1650
I1
aF4.5
asS'negatives'
p1651
(lp1652
I1
aF4.0
asS'papdi chaat'
p1653
(lp1654
I2
aF8.5
asS'varieties.ambience'
p1655
(lp1656
I1
aF4.0
asS'dont'
p1657
(lp1658
I1
aF4.5
asS'family'
p1659
(lp1660
I5
aF19.5
asS'expectations'
p1661
(lp1662
I1
aF3.5
asS'over.. food'
p1663
(lp1664
I1
aF4.5
asS'bati'
p1665
(lp1666
I1
aF5.0
asS'servers'
p1667
(lp1668
I1
aF5.0
asS'helpingambience'
p1669
(lp1670
I1
aF4.5
asS'padharo mhare'
p1671
(lp1672
I1
aF4.0
asS'mark'
p1673
(lp1674
I1
aF2.5
asS'considers'
p1675
(lp1676
I1
aF5.0
asS'flavors'
p1677
(lp1678
I1
aF4.0
asS'\xf0\x9f\x91\x91'
p1679
(lp1680
I1
aF4.5
asS'service'
p1681
(lp1682
I8
aF31.0
asS'friends'
p1683
(lp1684
I3
aF13.5
asS'visit'
p1685
(lp1686
I1
aF5.0
asS'food nice place'
p1687
(lp1688
I1
aF5.0
asS'jalebi'
p1689
(lp1690
I1
aF2.5
asS'anyone'
p1691
(lp1692
I1
aF3.0
asS'cousin\xe2\x80\x99s reunion'
p1693
(lp1694
I1
aF5.0
asS'excellent ambience'
p1695
(lp1696
I1
aF4.5
asS'everythings'
p1697
(lp1698
I1
aF5.0
asS'tangy'
p1699
(lp1700
I1
aF4.0
asS'aloo tikki chaat'
p1701
(lp1702
I1
aF4.5
asS'chats'
p1703
(lp1704
I2
aF9.0
asS'head'
p1705
(lp1706
I1
aF4.0
asS'spicy'
p1707
(lp1708
I1
aF4.0
asS'n clam ambiance'
p1709
(lp1710
I1
aF5.0
asS'quantities'
p1711
(lp1712
I1
aF1.0
asS'drawback today'
p1713
(lp1714
I1
aF4.0
asS'shrinathjis paintings'
p1715
(lp1716
I1
aF4.5
asS'rajasthani food'
p1717
(lp1718
I2
aF8.0
asS'photos'
p1719
(lp1720
I1
aF2.5
asS'way food'
p1721
(lp1722
I1
aF4.5
asS'sweets'
p1723
(lp1724
I1
aF4.5
asS'grace'
p1725
(lp1726
I1
aF2.5
asS'jalebi rasmalai'
p1727
(lp1728
I1
aF5.0
asS'customer'
p1729
(lp1730
I1
aF1.0
asS'king'
p1731
(lp1732
I1
aF5.0
asS'salad'
p1733
(lp1734
I1
aF4.5
asS'ideal place'
p1735
(lp1736
I1
aF5.0
asS'mild kesar aroma fills'
p1737
(lp1738
I1
aF4.0
asS'kesariya restaurant'
p1739
(lp1740
I1
aF1.0
asS'nice interior'
p1741
(lp1742
I1
aF3.5
asS'hall looks'
p1743
(lp1744
I1
aF4.5
asS'rajdhani food'
p1745
(lp1746
I1
aF3.0
asS'waiters'
p1747
(lp1748
I1
aF3.5
asS'zomato'
p1749
(lp1750
I2
aF8.5
asS'spice levels'
p1751
(lp1752
I1
aF5.0
asS'heart'
p1753
(lp1754
I1
aF5.0
asS'counter'
p1755
(lp1756
I1
aF5.0
asS'speciality'
p1757
(lp1758
I1
aF4.5
asS'snacks'
p1759
(lp1760
I1
aF5.0
asS'taste'
p1761
(lp1762
I5
aF19.5
asS'variety.i'
p1763
(lp1764
I1
aF5.0
asS'days'
p1765
(lp1766
I1
aF4.5
asS'favoriteee dal bhati churma'
p1767
(lp1768
I1
aF4.5
asS'shame'
p1769
(lp1770
I1
aF1.0
asS'festival day'
p1771
(lp1772
I1
aF4.0
asS'tasty'
p1773
(lp1774
I1
aF4.0
asS'something'
p1775
(lp1776
I1
aF5.0
asS'pleasant ambience'
p1777
(lp1778
I1
aF4.5
asS'thali lovers..'
p1779
(lp1780
I1
aF4.5
asS'cuisine'
p1781
(lp1782
I1
aF5.0
asS'decor'
p1783
(lp1784
I2
aF7.0
asS'it..'
p1785
(lp1786
I1
aF4.0
asS'dishes'
p1787
(lp1788
I4
aF17.0
asS'bit ok'
p1789
(lp1790
I1
aF4.0
asS'getaway memory'
p1791
(lp1792
I1
aF5.0
asS'bowl'
p1793
(lp1794
I1
aF3.0
asS'dinner'
p1795
(lp1796
I2
aF9.5
asS'sunday'
p1797
(lp1798
I1
aF2.5
asS'fida'
p1799
(lp1800
I1
aF4.5
asS'rajasthani cuisine restaurant'
p1801
(lp1802
I1
aF5.0
asS'week'
p1803
(lp1804
I1
aF5.0
asS'dal baati'
p1805
(lp1806
I1
aF4.5
asS'experience.the food'
p1807
(lp1808
I1
aF4.0
asS'drink'
p1809
(lp1810
I1
aF5.0
asS'visits'
p1811
(lp1812
I1
aF5.0
asS'delight'
p1813
(lp1814
I1
aF5.0
asS'chance'
p1815
(lp1816
I1
aF5.0
asS'rajasthani roots'
p1817
(lp1818
I1
aF2.5
asS'quality food'
p1819
(lp1820
I1
aF4.5
asS'occasion'
p1821
(lp1822
I1
aF4.0
asS'nothing'
p1823
(lp1824
I1
aF3.5
asS'rajasthani cuisine'
p1825
(lp1826
I1
aF4.5
asS'jp nagar bangalore'
p1827
(lp1828
I1
aF5.0
asS'meals'
p1829
(lp1830
I1
aF5.0
asS'building'
p1831
(lp1832
I1
aF4.5
asS'okay..'
p1833
(lp1834
I1
aF4.5
asS'varieties'
p1835
(lp1836
I2
aF9.0
asS'silver platter'
p1837
(lp1838
I1
aF4.5
asS'sugar variations'
p1839
(lp1840
I1
aF4.5
asS'yummy kulfi'
p1841
(lp1842
I1
aF4.5
asS'variety'
p1843
(lp1844
I3
aF14.5
asS'rajasthani daal'
p1845
(lp1846
I1
aF4.5
asS'interiors'
p1847
(lp1848
I1
aF4.5
asS'kesariya'
p1849
(lp1850
I3
aF14.5
asS'nice place'
p1851
(lp1852
I1
aF3.5
asS'chutneys'
p1853
(lp1854
I1
aF4.5
asS'time'
p1855
(lp1856
I2
aF9.0
asS'pleasure'
p1857
(lp1858
I1
aF5.0
asS'salt'
p1859
(lp1860
I1
aF4.5
asS'fact'
p1861
(lp1862
I1
aF3.0
asS'family members'
p1863
(lp1864
I1
aF4.0
assS'58698'
p1865
(dp1866
S'palm sugar ice cream'
p1867
(lp1868
I1
aF4.0
asS'selection'
p1869
(lp1870
I2
aF8.0
asS'bomb'
p1871
(lp1872
I1
aF4.0
asS'fail.the service'
p1873
(lp1874
I1
aF4.5
asS'chain'
p1875
(lp1876
I1
aF4.0
asS'rating'
p1877
(lp1878
I1
aF2.0
asS'money'
p1879
(lp1880
I3
aF12.5
asS'mains'
p1881
(lp1882
I2
aF8.0
asS'strange decor'
p1883
(lp1884
I1
aF5.0
asS'dumplingsmain courses'
p1885
(lp1886
I2
aF9.0
asS'palm sugar icecream'
p1887
(lp1888
I2
aF8.0
asS'course'
p1889
(lp1890
I5
aF20.5
asS'crispy lotus stem'
p1891
(lp1892
I1
aF5.0
asS'yummy food.we orderedstarters'
p1893
(lp1894
I2
aF9.0
asS'dish'
p1895
(lp1896
I3
aF13.0
asS'oriental food destination'
p1897
(lp1898
I1
aF4.0
asS'chicken'
p1899
(lp1900
I4
aF18.0
asS'everyones'
p1901
(lp1902
I2
aF9.0
asS'calamari'
p1903
(lp1904
I2
aF8.0
asS'milk'
p1905
(lp1906
I2
aF8.0
asS'prawns crackers'
p1907
(lp1908
I1
aF4.0
asS'staff'
p1909
(lp1910
I5
aF20.0
asS'perfect'
p1911
(lp1912
I2
aF9.0
asS'tables'
p1913
(lp1914
I2
aF9.0
asS'satay'
p1915
(lp1916
I1
aF4.0
asS'office'
p1917
(lp1918
I1
aF5.0
asS'tablet'
p1919
(lp1920
I2
aF9.0
asS'perfect place'
p1921
(lp1922
I2
aF9.0
asS'justice'
p1923
(lp1924
I2
aF9.0
asS'menu'
p1925
(lp1926
I1
aF4.0
asS'reviews'
p1927
(lp1928
I2
aF6.0
asS'bbq dip'
p1929
(lp1930
I2
aF9.0
asS'texture'
p1931
(lp1932
I2
aF8.0
asS'starters'
p1933
(lp1934
I7
aF28.0
asS'feel'
p1935
(lp1936
I2
aF9.0
asS'offers'
p1937
(lp1938
I1
aF4.0
asS'bit repetitive'
p1939
(lp1940
I1
aF4.0
asS'location'
p1941
(lp1942
I1
aF5.0
asS'soggy basil'
p1943
(lp1944
I1
aF4.5
asS'ambience'
p1945
(lp1946
I9
aF37.0
asS'chinese'
p1947
(lp1948
I1
aF5.0
asS'rice'
p1949
(lp1950
I4
aF15.5
asS'presentation'
p1951
(lp1952
I2
aF8.5
asS'worth'
p1953
(lp1954
I2
aF8.5
asS'waiters'
p1955
(lp1956
I1
aF5.0
asS'caramel toffee cake'
p1957
(lp1958
I2
aF9.0
asS'eateries'
p1959
(lp1960
I1
aF5.0
asS'lack'
p1961
(lp1962
I2
aF9.0
asS'touch'
p1963
(lp1964
I1
aF2.0
asS'food'
p1965
(lp1966
I16
aF66.0
asS'couple'
p1967
(lp1968
I1
aF5.0
asS'qualms'
p1969
(lp1970
I2
aF9.0
asS'choice'
p1971
(lp1972
I3
aF13.0
asS'pocket'
p1973
(lp1974
I1
aF2.0
asS'lunch'
p1975
(lp1976
I3
aF14.0
asS'walls'
p1977
(lp1978
I1
aF2.0
asS'curry'
p1979
(lp1980
I1
aF4.0
asS'mamagoto'
p1981
(lp1982
I2
aF9.0
asS'outlet'
p1983
(lp1984
I2
aF8.0
asS'chicken satay'
p1985
(lp1986
I2
aF9.0
asS'world'
p1987
(lp1988
I2
aF8.0
asS'cuisine taste'
p1989
(lp1990
I2
aF9.0
asS'sweety'
p1991
(lp1992
I2
aF9.0
asS'ramen'
p1993
(lp1994
I2
aF8.0
asS'satisfaction'
p1995
(lp1996
I1
aF2.0
asS'name'
p1997
(lp1998
I1
aF4.5
asS'place today afternoon'
p1999
(lp2000
I1
aF4.5
asS'level'
p2001
(lp2002
I3
aF13.5
asS'veg pan'
p2003
(lp2004
I2
aF9.0
asS'serves'
p2005
(lp2006
I1
aF4.0
asS'asia'
p2007
(lp2008
I1
aF2.0
asS'item'
p2009
(lp2010
I1
aF4.0
asS'stuff'
p2011
(lp2012
I1
aF5.0
asS'either'
p2013
(lp2014
I1
aF3.0
asS'people comfortably2'
p2015
(lp2016
I1
aF4.0
asS'activity'
p2017
(lp2018
I1
aF3.5
asS'havent'
p2019
(lp2020
I1
aF4.5
asS'meal'
p2021
(lp2022
I2
aF8.0
asS'bali barnie noodles'
p2023
(lp2024
I1
aF4.5
asS'restaurants'
p2025
(lp2026
I1
aF4.0
asS'pork'
p2027
(lp2028
I3
aF13.0
asS'everyone'
p2029
(lp2030
I1
aF4.0
asS'people'
p2031
(lp2032
I5
aF21.5
asS'list'
p2033
(lp2034
I1
aF5.0
asS'spiciness'
p2035
(lp2036
I3
aF13.5
asS'streets'
p2037
(lp2038
I2
aF9.0
asS'outlet couple'
p2039
(lp2040
I1
aF5.0
asS'yeah'
p2041
(lp2042
I1
aF4.5
asS'competition'
p2043
(lp2044
I1
aF4.0
asS'oriental ambiance'
p2045
(lp2046
I1
aF4.5
asS'cocktails'
p2047
(lp2048
I1
aF4.5
asS'malaysia'
p2049
(lp2050
I1
aF2.0
asS'veg spring roles'
p2051
(lp2052
I2
aF9.0
asS'authenticity'
p2053
(lp2054
I1
aF4.5
asS'sunday afternoon'
p2055
(lp2056
I2
aF8.0
asS'noodles'
p2057
(lp2058
I2
aF9.0
asS'hole'
p2059
(lp2060
I1
aF2.0
asS'chicken dumplings'
p2061
(lp2062
I1
aF4.0
asS'menu option'
p2063
(lp2064
I2
aF9.0
asS'lemongrass'
p2065
(lp2066
I2
aF8.0
asS'customers everythings'
p2067
(lp2068
I1
aF4.5
asS'handmade coconut'
p2069
(lp2070
I2
aF8.0
asS'corn pepper salt'
p2071
(lp2072
I1
aF4.5
asS'adds'
p2073
(lp2074
I1
aF4.5
asS'rate'
p2075
(lp2076
I1
aF5.0
asS'twice'
p2077
(lp2078
I2
aF6.5
asS'lots'
p2079
(lp2080
I1
aF4.0
asS'speed'
p2081
(lp2082
I2
aF9.0
asS'review'
p2083
(lp2084
I3
aF13.5
asS'place isnt'
p2085
(lp2086
I1
aF4.0
asS'sangria'
p2087
(lp2088
I1
aF4.0
asS'overload'
p2089
(lp2090
I1
aF2.0
asS'watercress spring roll'
p2091
(lp2092
I1
aF4.0
asS'hakka noodles'
p2093
(lp2094
I1
aF4.0
asS'score'
p2095
(lp2096
I1
aF4.0
asS'variety sauce'
p2097
(lp2098
I1
aF4.5
asS'flavor bomb'
p2099
(lp2100
I1
aF4.0
asS'side'
p2101
(lp2102
I3
aF13.0
asS'body'
p2103
(lp2104
I2
aF8.0
asS'flavors'
p2105
(lp2106
I1
aF5.0
asS'flavours'
p2107
(lp2108
I1
aF4.5
asS'bbq pork'
p2109
(lp2110
I2
aF9.0
asS'hakka style'
p2111
(lp2112
I1
aF4.5
asS'yumm..'
p2113
(lp2114
I2
aF9.0
asS'attention'
p2115
(lp2116
I1
aF4.5
asS'oriental restaurants'
p2117
(lp2118
I1
aF4.5
asS'experienceambiance'
p2119
(lp2120
I1
aF4.5
asS'possibility'
p2121
(lp2122
I1
aF3.5
asS'osaka tube station chicken bowl-'
p2123
(lp2124
I2
aF8.0
asS'bangkok'
p2125
(lp2126
I1
aF2.0
asS'spice'
p2127
(lp2128
I1
aF2.0
asS'reason'
p2129
(lp2130
I1
aF4.5
asS'china'
p2131
(lp2132
I1
aF5.0
asS'dim lit place'
p2133
(lp2134
I1
aF4.5
asS'cousin'
p2135
(lp2136
I1
aF4.5
asS'bangalore'
p2137
(lp2138
I1
aF4.0
asS'que.food'
p2139
(lp2140
I1
aF4.5
asS'street-food venue'
p2141
(lp2142
I1
aF2.0
asS'shrimp dish'
p2143
(lp2144
I1
aF4.5
asS'delhi ncr'
p2145
(lp2146
I2
aF8.0
asS'fiery shrimp friedrice'
p2147
(lp2148
I1
aF4.5
asS'anything'
p2149
(lp2150
I1
aF4.5
asS'restaurant'
p2151
(lp2152
I2
aF9.0
asS'waiter'
p2153
(lp2154
I2
aF9.0
asS'items'
p2155
(lp2156
I1
aF4.0
asS'home delivery'
p2157
(lp2158
I1
aF4.5
asS'sitting arrangements'
p2159
(lp2160
I1
aF4.0
asS'wifey'
p2161
(lp2162
I2
aF9.0
asS'experience'
p2163
(lp2164
I5
aF20.5
asS'ambiance isnt'
p2165
(lp2166
I1
aF4.0
asS'players'
p2167
(lp2168
I1
aF3.5
asS'dinner'
p2169
(lp2170
I3
aF13.0
asS'heck'
p2171
(lp2172
I2
aF9.0
asS'patrons'
p2173
(lp2174
I1
aF3.5
asS'decent'
p2175
(lp2176
I1
aF3.5
asS'hence'
p2177
(lp2178
I2
aF8.0
asS'opinion'
p2179
(lp2180
I1
aF3.0
asS'reason didnt find'
p2181
(lp2182
I1
aF4.5
asS'habit'
p2183
(lp2184
I2
aF9.0
asS'taipei'
p2185
(lp2186
I1
aF2.0
asS'thats'
p2187
(lp2188
I1
aF4.5
asS'soya sauce'
p2189
(lp2190
I2
aF9.0
asS'love'
p2191
(lp2192
I1
aF4.5
asS'crispy batter'
p2193
(lp2194
I2
aF8.0
asS'family'
p2195
(lp2196
I1
aF4.0
asS'wall'
p2197
(lp2198
I2
aF9.0
asS'hearty portions'
p2199
(lp2200
I1
aF4.0
asS'mamagoto play'
p2201
(lp2202
I1
aF4.5
asS'spicy chicken ramen bowl'
p2203
(lp2204
I1
aF4.0
asS'servers'
p2205
(lp2206
I1
aF3.0
asS'packaging'
p2207
(lp2208
I1
aF4.0
asS'laksa prawn soup'
p2209
(lp2210
I2
aF8.0
asS'food quality'
p2211
(lp2212
I1
aF4.5
asS'posters'
p2213
(lp2214
I2
aF9.0
asS'thai crispy'
p2215
(lp2216
I1
aF4.5
asS'quality'
p2217
(lp2218
I4
aF16.0
asS'sunday'
p2219
(lp2220
I2
aF9.0
asS'considering'
p2221
(lp2222
I1
aF4.0
asS'city'
p2223
(lp2224
I1
aF4.5
asS'dumplings'
p2225
(lp2226
I1
aF4.5
asS'choice list'
p2227
(lp2228
I1
aF4.0
asS'portion2'
p2229
(lp2230
I1
aF4.0
asS'service'
p2231
(lp2232
I4
aF15.5
asS'funky ambience'
p2233
(lp2234
I1
aF5.0
asS'rice didnt'
p2235
(lp2236
I1
aF4.5
asS'weekend'
p2237
(lp2238
I1
aF4.0
asS'street food carts'
p2239
(lp2240
I1
aF2.0
asS'visit'
p2241
(lp2242
I2
aF8.0
asS'curries'
p2243
(lp2244
I1
aF4.5
asS'mark'
p2245
(lp2246
I1
aF4.0
asS'start'
p2247
(lp2248
I1
aF4.0
asS'hotel room..'
p2249
(lp2250
I1
aF4.5
asS'music'
p2251
(lp2252
I1
aF3.0
asS'musiccons:1.'
p2253
(lp2254
I1
aF4.0
asS'recommend'
p2255
(lp2256
I1
aF5.0
asS'buzzing indiranagar'
p2257
(lp2258
I1
aF3.5
asS'spicy dumplings'
p2259
(lp2260
I1
aF4.0
asS'awesome'
p2261
(lp2262
I1
aF4.5
asS'friend'
p2263
(lp2264
I2
aF9.0
asS'food places'
p2265
(lp2266
I1
aF5.0
asS'head'
p2267
(lp2268
I1
aF3.5
asS'alongside'
p2269
(lp2270
I1
aF4.5
asS'idle nd nothing'
p2271
(lp2272
I1
aF4.5
asS'benchmark'
p2273
(lp2274
I1
aF3.5
asS'search'
p2275
(lp2276
I2
aF9.0
asS'delivery'
p2277
(lp2278
I1
aF4.0
asS'phone'
p2279
(lp2280
I2
aF9.0
asS'dim sum fan'
p2281
(lp2282
I1
aF4.5
asS'prawn crackers'
p2283
(lp2284
I1
aF4.5
asS'crispy lamb'
p2285
(lp2286
I1
aF4.0
asS'excellent'
p2287
(lp2288
I3
aF13.5
asS'prices'
p2289
(lp2290
I2
aF9.5
asS'\xf0\x9f\x98\x82'
p2291
(lp2292
I1
aF4.0
asS'thai'
p2293
(lp2294
I5
aF22.0
asS'seat'
p2295
(lp2296
I2
aF9.0
asS'matter'
p2297
(lp2298
I1
aF4.5
asS'exception'
p2299
(lp2300
I1
aF3.5
asS'plenty'
p2301
(lp2302
I1
aF4.0
asS'places'
p2303
(lp2304
I7
aF31.5
asS'thai place'
p2305
(lp2306
I1
aF5.0
asS'sauce'
p2307
(lp2308
I3
aF13.5
asS'interiors'
p2309
(lp2310
I1
aF4.5
asS'bill'
p2311
(lp2312
I1
aF4.5
asS'oil dumplings'
p2313
(lp2314
I2
aF9.0
asS'noodlesdeserts'
p2315
(lp2316
I2
aF9.0
asS'value'
p2317
(lp2318
I2
aF6.0
asS'portion size'
p2319
(lp2320
I2
aF8.0
asS'soup'
p2321
(lp2322
I2
aF8.0
asS'rice bowls'
p2323
(lp2324
I2
aF9.0
asS'oh mamagoto-'
p2325
(lp2326
I1
aF4.0
asS'pan asian food'
p2327
(lp2328
I1
aF4.5
asS'containers'
p2329
(lp2330
I1
aF4.5
asS'zomato'
p2331
(lp2332
I3
aF13.0
asS'china.i'
p2333
(lp2334
I1
aF5.0
asS'crackers'
p2335
(lp2336
I1
aF4.5
asS'asbestos sheets'
p2337
(lp2338
I1
aF2.0
asS'minutes'
p2339
(lp2340
I2
aF9.0
asS'feature'
p2341
(lp2342
I2
aF9.0
asS'mistake'
p2343
(lp2344
I1
aF4.5
asS'heart'
p2345
(lp2346
I1
aF4.0
asS'coconut'
p2347
(lp2348
I1
aF4.0
asS'ambience too.. fabulous..very prompt'
p2349
(lp2350
I1
aF4.0
asS'taste'
p2351
(lp2352
I3
aF12.5
asS'venila ice cream'
p2353
(lp2354
I2
aF9.0
asS'penny'
p2355
(lp2356
I1
aF4.0
asS'juicy'
p2357
(lp2358
I2
aF9.0
asS'ginger'
p2359
(lp2360
I2
aF8.0
asS'honey'
p2361
(lp2362
I2
aF9.0
asS'heard'
p2363
(lp2364
I2
aF8.0
asS'cant'
p2365
(lp2366
I1
aF4.0
asS'spicy'
p2367
(lp2368
I1
aF4.5
asS'punctuality'
p2369
(lp2370
I2
aF9.0
asS'times'
p2371
(lp2372
I4
aF16.5
asS'corns'
p2373
(lp2374
I1
aF4.5
asS'fame'
p2375
(lp2376
I2
aF8.0
asS'ratings'
p2377
(lp2378
I2
aF8.0
asS'decor'
p2379
(lp2380
I1
aF2.0
asS'lacks'
p2381
(lp2382
I1
aF4.0
asS'wholesome'
p2383
(lp2384
I2
aF8.0
asS'dishes'
p2385
(lp2386
I2
aF6.5
asS'variety'
p2387
(lp2388
I3
aF12.5
asS'money category too. )'
p2389
(lp2390
I1
aF2.0
asS'try crystal dumplings'
p2391
(lp2392
I2
aF9.0
asS'bowl'
p2393
(lp2394
I3
aF13.5
asS'indiranagar'
p2395
(lp2396
I2
aF8.0
asS'reality'
p2397
(lp2398
I2
aF9.0
asS'note'
p2399
(lp2400
I1
aF2.0
asS'staff ive'
p2401
(lp2402
I1
aF4.5
asS'amazing'
p2403
(lp2404
I1
aF5.0
asS'drawback'
p2405
(lp2406
I1
aF4.0
asS'restaurant till date..i'
p2407
(lp2408
I1
aF4.5
asS'street style spicy dumplings'
p2409
(lp2410
I1
aF4.5
asS'veg basil cups'
p2411
(lp2412
I1
aF4.0
asS'skewers'
p2413
(lp2414
I2
aF9.0
asS'warehouse'
p2415
(lp2416
I3
aF14.0
asS'place'
p2417
(lp2418
I21
aF86.5
asS'drinks'
p2419
(lp2420
I1
aF4.5
asS'guys'
p2421
(lp2422
I2
aF9.0
asS'basil cups'
p2423
(lp2424
I1
aF4.0
asS'prawn dumplings'
p2425
(lp2426
I1
aF4.0
asS'cuisine'
p2427
(lp2428
I2
aF9.0
asS'read good reviews'
p2429
(lp2430
I2
aF9.0
asS'price'
p2431
(lp2432
I3
aF12.0
asS'food didnt pack'
p2433
(lp2434
I1
aF4.0
asS'spot'
p2435
(lp2436
I1
aF4.0
asS'hand'
p2437
(lp2438
I2
aF8.0
asS'warmly.the food'
p2439
(lp2440
I1
aF5.0
asS'moment'
p2441
(lp2442
I1
aF4.0
asS'plan'
p2443
(lp2444
I1
aF4.5
asS'favorites'
p2445
(lp2446
I2
aF8.0
asS'reservation'
p2447
(lp2448
I1
aF4.5
asS'decision'
p2449
(lp2450
I2
aF9.0
asS'zomato product'
p2451
(lp2452
I2
aF9.0
asS'friends'
p2453
(lp2454
I3
aF11.5
asS'class'
p2455
(lp2456
I1
aF4.0
asS'achievement'
p2457
(lp2458
I1
aF4.0
asS'apple cinnamon sangria'
p2459
(lp2460
I1
aF4.5
asS'paintings'
p2461
(lp2462
I1
aF2.0
asS'bengali im'
p2463
(lp2464
I1
aF4.0
asS'matters'
p2465
(lp2466
I1
aF4.0
asS'yummmmy'
p2467
(lp2468
I1
aF5.0
asS'soups'
p2469
(lp2470
I1
aF4.5
asS'work'
p2471
(lp2472
I1
aF4.5
asS'bit oriental'
p2473
(lp2474
I2
aF9.0
asS'thai food'
p2475
(lp2476
I4
aF18.5
asS'excellent food'
p2477
(lp2478
I1
aF4.0
asS'cross-mix recipes'
p2479
(lp2480
I1
aF2.0
asS'agenda'
p2481
(lp2482
I1
aF3.5
asS'time'
p2483
(lp2484
I7
aF30.5
asS'liquor options'
p2485
(lp2486
I1
aF4.0
asS'everything'
p2487
(lp2488
I1
aF4.0
asS'south east asian food'
p2489
(lp2490
I2
aF8.0
asS'ice creams'
p2491
(lp2492
I1
aF4.0
asS'order'
p2493
(lp2494
I2
aF9.0
asS'fact'
p2495
(lp2496
I2
aF8.0
asS'quantity'
p2497
(lp2498
I3
aF13.0
assS'18375545'
p2499
(dp2500
sS'61111'
p2501
(dp2502
S'heart feels'
p2503
(lp2504
I2
aF9.0
asS'rating'
p2505
(lp2506
I2
aF10.0
asS'concept'
p2507
(lp2508
I1
aF4.5
asS'truffle icecream'
p2509
(lp2510
I1
aF5.0
asS'money'
p2511
(lp2512
I3
aF14.5
asS'weekend'
p2513
(lp2514
I1
aF4.0
asS'cakes'
p2515
(lp2516
I1
aF5.0
asS'100gms'
p2517
(lp2518
I1
aF4.5
asS'wildberris'
p2519
(lp2520
I1
aF4.0
asS'sample platter'
p2521
(lp2522
I2
aF9.0
asS'icecreams'
p2523
(lp2524
I2
aF9.5
asS'attitude'
p2525
(lp2526
I1
aF5.0
asS'nikhil'
p2527
(lp2528
I1
aF5.0
asS'wild berries'
p2529
(lp2530
I2
aF9.0
asS'thanks'
p2531
(lp2532
I1
aF4.0
asS'flavor'
p2533
(lp2534
I3
aF13.5
asS'milk'
p2535
(lp2536
I1
aF5.0
asS'staff'
p2537
(lp2538
I3
aF15.0
asS'perfect'
p2539
(lp2540
I1
aF5.0
asS'apple sorbet'
p2541
(lp2542
I1
aF5.0
asS'lemon flavour'
p2543
(lp2544
I1
aF4.0
asS'bit heavy'
p2545
(lp2546
I2
aF9.0
asS'wild berries..'
p2547
(lp2548
I1
aF4.5
asS'lights'
p2549
(lp2550
I1
aF5.0
asS'menu'
p2551
(lp2552
I3
aF14.5
asS'creme prule'
p2553
(lp2554
I1
aF2.5
asS'texture'
p2555
(lp2556
I1
aF5.0
asS'sugar'
p2557
(lp2558
I1
aF4.5
asS'choice'
p2559
(lp2560
I2
aF9.0
asS'voila'
p2561
(lp2562
I2
aF9.0
asS'combo'
p2563
(lp2564
I1
aF4.5
asS'orange'
p2565
(lp2566
I1
aF4.5
asS'credidblity'
p2567
(lp2568
I1
aF4.5
asS'sorry'
p2569
(lp2570
I1
aF5.0
asS'ice cream parlour'
p2571
(lp2572
I2
aF9.0
asS'tiny bit'
p2573
(lp2574
I1
aF4.0
asS'heart desires'
p2575
(lp2576
I1
aF5.0
asS'coffee'
p2577
(lp2578
I3
aF13.0
asS'weve'
p2579
(lp2580
I1
aF4.5
asS'everthing'
p2581
(lp2582
I1
aF5.0
asS'lazy weekend'
p2583
(lp2584
I1
aF4.0
asS'dessert'
p2585
(lp2586
I1
aF5.0
asS'scoops..'
p2587
(lp2588
I1
aF4.5
asS'pocket'
p2589
(lp2590
I1
aF4.0
asS'ones'
p2591
(lp2592
I1
aF4.5
asS'notch gelato'
p2593
(lp2594
I1
aF5.0
asS'surprise'
p2595
(lp2596
I1
aF4.0
asS'ice-cream cakes'
p2597
(lp2598
I1
aF5.0
asS'brain freeze \xf0\x9f\x98\x85\xf0\x9f\x98\x85.and'
p2599
(lp2600
I1
aF4.5
asS'truffle ice cream'
p2601
(lp2602
I1
aF4.5
asS'name'
p2603
(lp2604
I1
aF5.0
asS'shop'
p2605
(lp2606
I1
aF5.0
asS'\xe2\x9d\xa4\xef\xb8\x8f cant get'
p2607
(lp2608
I1
aF5.0
asS'chairs'
p2609
(lp2610
I1
aF5.0
asS'list'
p2611
(lp2612
I1
aF5.0
asS'brother'
p2613
(lp2614
I1
aF4.5
asS'taxes'
p2615
(lp2616
I1
aF4.5
asS'ibaco'
p2617
(lp2618
I1
aF4.5
asS'filling'
p2619
(lp2620
I1
aF5.0
asS'stuff'
p2621
(lp2622
I1
aF4.5
asS'ice cream cake'
p2623
(lp2624
I1
aF4.0
asS'truth'
p2625
(lp2626
I1
aF5.0
asS'rock'
p2627
(lp2628
I1
aF5.0
asS'nothing extra ordinary'
p2629
(lp2630
I1
aF4.0
asS'person'
p2631
(lp2632
I1
aF4.5
asS'family.i'
p2633
(lp2634
I2
aF9.0
asS'cones'
p2635
(lp2636
I1
aF4.5
asS'people'
p2637
(lp2638
I1
aF5.0
asS'sorbet'
p2639
(lp2640
I2
aF9.0
asS'sundaes'
p2641
(lp2642
I5
aF22.5
asS'mascarpone cheese'
p2643
(lp2644
I1
aF4.5
asS'placeif'
p2645
(lp2646
I1
aF4.0
asS'flavours'
p2647
(lp2648
I12
aF55.5
asS'sorbets'
p2649
(lp2650
I1
aF5.0
asS'pricing'
p2651
(lp2652
I2
aF9.5
asS'lingers'
p2653
(lp2654
I1
aF5.0
asS'becomes inr'
p2655
(lp2656
I1
aF4.5
asS'gave'
p2657
(lp2658
I1
aF4.5
asS'gm cup'
p2659
(lp2660
I1
aF4.5
asS'thing'
p2661
(lp2662
I1
aF5.0
asS'ice cream'
p2663
(lp2664
I10
aF46.5
asS'crepe rather..'
p2665
(lp2666
I1
aF4.5
asS'gosh'
p2667
(lp2668
I1
aF5.0
asS'shakti'
p2669
(lp2670
I1
aF5.0
asS'wallet'
p2671
(lp2672
I1
aF5.0
asS'ways'
p2673
(lp2674
I1
aF5.0
asS'scoops'
p2675
(lp2676
I5
aF22.5
asS'review'
p2677
(lp2678
I2
aF9.0
asS'ideal way'
p2679
(lp2680
I1
aF4.0
asS'nutella'
p2681
(lp2682
I3
aF12.5
asS'mascarpone cream cheese'
p2683
(lp2684
I2
aF9.0
asS'tiramisu'
p2685
(lp2686
I2
aF8.5
asS'everything'
p2687
(lp2688
I1
aF4.5
asS'chocolate sundae'
p2689
(lp2690
I1
aF5.0
asS'town yesterday'
p2691
(lp2692
I1
aF5.0
asS'truffle'
p2693
(lp2694
I2
aF9.0
asS'reading'
p2695
(lp2696
I1
aF2.5
asS'fort kochi'
p2697
(lp2698
I1
aF5.0
asS'fruit pulp hidden'
p2699
(lp2700
I1
aF4.0
asS'multiple rounds'
p2701
(lp2702
I1
aF4.5
asS'cozy lil corner'
p2703
(lp2704
I1
aF4.5
asS'blowing'
p2705
(lp2706
I1
aF5.0
asS'eating'
p2707
(lp2708
I2
aF9.0
asS'kochi milano'
p2709
(lp2710
I1
aF5.0
asS'cr\xc3\xa8me'
p2711
(lp2712
I1
aF5.0
asS'months'
p2713
(lp2714
I1
aF5.0
asS'itself.the ice creams'
p2715
(lp2716
I1
aF4.5
asS'jasmine'
p2717
(lp2718
I1
aF5.0
asS'class quality'
p2719
(lp2720
I1
aF5.0
asS'excellentambiance'
p2721
(lp2722
I1
aF5.0
asS'flavours.the smoothness'
p2723
(lp2724
I1
aF4.5
asS'fruity flavors'
p2725
(lp2726
I1
aF4.5
asS'travelling close'
p2727
(lp2728
I1
aF5.0
asS'vanilla gelato'
p2729
(lp2730
I1
aF4.0
asS'buck'
p2731
(lp2732
I1
aF5.0
asS'ice creams elsewhere..'
p2733
(lp2734
I1
aF4.5
asS'items'
p2735
(lp2736
I1
aF5.0
asS'employees'
p2737
(lp2738
I1
aF5.0
asS'area'
p2739
(lp2740
I2
aF8.5
asS'times'
p2741
(lp2742
I2
aF9.5
asS'pistachio'
p2743
(lp2744
I2
aF7.0
asS'amount'
p2745
(lp2746
I2
aF9.0
asS'years.was roaming'
p2747
(lp2748
I1
aF5.0
asS'place'
p2749
(lp2750
I19
aF86.5
asS'chocolate truffle'
p2751
(lp2752
I1
aF4.5
asS'hence'
p2753
(lp2754
I2
aF9.0
asS'geniuses'
p2755
(lp2756
I1
aF5.0
asS'road'
p2757
(lp2758
I1
aF4.0
asS'berry type'
p2759
(lp2760
I1
aF4.5
asS'too.the ice cream'
p2761
(lp2762
I1
aF4.5
asS'love'
p2763
(lp2764
I1
aF5.0
asS'ice-cream lovers'
p2765
(lp2766
I1
aF5.0
asS'variety..'
p2767
(lp2768
I1
aF2.5
asS'wild berry flavour'
p2769
(lp2770
I1
aF2.5
asS'flavours everyday'
p2771
(lp2772
I1
aF4.5
asS'god luck team'
p2773
(lp2774
I1
aF5.0
asS'cocoa'
p2775
(lp2776
I1
aF5.0
asS'coffee flavor'
p2777
(lp2778
I1
aF4.0
asS'milano \xf0\x9f\x91\x8fcheers'
p2779
(lp2780
I1
aF5.0
asS'ice-cream'
p2781
(lp2782
I2
aF9.0
asS'evening.. nice ambience'
p2783
(lp2784
I1
aF4.5
asS'cups'
p2785
(lp2786
I1
aF4.5
asS'back door'
p2787
(lp2788
I1
aF5.0
asS'bangalore'
p2789
(lp2790
I6
aF27.5
asS'flavors'
p2791
(lp2792
I5
aF24.0
asS'people..'
p2793
(lp2794
I1
aF5.0
asS'management'
p2795
(lp2796
I1
aF5.0
asS'french crepes'
p2797
(lp2798
I1
aF4.5
asS'service'
p2799
(lp2800
I1
aF5.0
asS'wah wah'
p2801
(lp2802
I1
aF5.0
asS'beginning'
p2803
(lp2804
I1
aF5.0
asS'bite'
p2805
(lp2806
I1
aF4.5
asS'wildberries'
p2807
(lp2808
I1
aF4.0
asS'visit'
p2809
(lp2810
I3
aF13.5
asS'chocolate hints'
p2811
(lp2812
I1
aF4.0
asS'wasnt'
p2813
(lp2814
I2
aF9.0
asS'amazing decadent ice creams'
p2815
(lp2816
I1
aF4.0
asS'fragrance'
p2817
(lp2818
I1
aF5.0
asS'tangy'
p2819
(lp2820
I1
aF4.0
asS'scope'
p2821
(lp2822
I1
aF4.5
asS'thru'
p2823
(lp2824
I1
aF5.0
asS'type'
p2825
(lp2826
I1
aF5.0
asS'banana'
p2827
(lp2828
I1
aF4.5
asS'gelatos'
p2829
(lp2830
I3
aF15.0
asS'happy'
p2831
(lp2832
I2
aF9.0
asS'life'
p2833
(lp2834
I1
aF5.0
asS'almond'
p2835
(lp2836
I1
aF4.5
asS'form'
p2837
(lp2838
I1
aF5.0
asS'ambiance'
p2839
(lp2840
I2
aF10.0
asS'chocolate'
p2841
(lp2842
I3
aF10.5
asS'ambience'
p2843
(lp2844
I2
aF9.0
asS'yummy ice creams'
p2845
(lp2846
I1
aF5.0
asS'hazelnut'
p2847
(lp2848
I1
aF5.0
asS'branches'
p2849
(lp2850
I1
aF4.0
asS'indiranagar area..'
p2851
(lp2852
I1
aF4.5
asS'ice cream parlor'
p2853
(lp2854
I1
aF5.0
asS'hints'
p2855
(lp2856
I2
aF9.0
asS'town'
p2857
(lp2858
I1
aF5.0
asS'honey'
p2859
(lp2860
I1
aF4.5
asS'kind'
p2861
(lp2862
I2
aF9.0
asS'flavour'
p2863
(lp2864
I1
aF2.5
asS'strawberry gelato'
p2865
(lp2866
I1
aF4.0
asS'places'
p2867
(lp2868
I2
aF9.5
asS'bits'
p2869
(lp2870
I1
aF4.0
asS'wish'
p2871
(lp2872
I1
aF4.0
asS'them.the portions'
p2873
(lp2874
I1
aF4.5
asS'work'
p2875
(lp2876
I1
aF5.0
asS'beyond words'
p2877
(lp2878
I1
aF5.0
asS'anything extra ordinary'
p2879
(lp2880
I1
aF2.5
asS'creme brulee gelato'
p2881
(lp2882
I1
aF4.0
asS') orange cheesecake gelato'
p2883
(lp2884
I2
aF9.0
asS'shizzzzz'
p2885
(lp2886
I1
aF5.0
asS'cravings'
p2887
(lp2888
I1
aF5.0
asS'zomato'
p2889
(lp2890
I2
aF7.5
asS'nutella gelato'
p2891
(lp2892
I1
aF4.0
asS'ice cream lovers'
p2893
(lp2894
I2
aF9.5
asS'excellent place'
p2895
(lp2896
I1
aF5.0
asS'problem'
p2897
(lp2898
I1
aF4.5
asS'spriguli'
p2899
(lp2900
I1
aF4.5
asS'minutes'
p2901
(lp2902
I1
aF5.0
asS'hearts content'
p2903
(lp2904
I1
aF4.5
asS'history'
p2905
(lp2906
I1
aF4.5
asS'heart'
p2907
(lp2908
I3
aF13.5
asS'bidding farewell'
p2909
(lp2910
I2
aF9.0
asS'crepes'
p2911
(lp2912
I3
aF13.5
asS'nicer'
p2913
(lp2914
I1
aF4.0
asS'gelato place'
p2915
(lp2916
I1
aF4.5
asS'taste'
p2917
(lp2918
I2
aF9.5
asS'-extra white'
p2919
(lp2920
I2
aF9.0
asS') wildberries'
p2921
(lp2922
I2
aF9.0
asS'eyes'
p2923
(lp2924
I1
aF4.5
asS'week..'
p2925
(lp2926
I1
aF5.0
asS'chocolate sauce'
p2927
(lp2928
I2
aF9.0
asS'chocolate flavour'
p2929
(lp2930
I1
aF4.5
asS'tastes'
p2931
(lp2932
I1
aF5.0
asS'seed'
p2933
(lp2934
I1
aF4.0
asS'tasty'
p2935
(lp2936
I1
aF4.5
asS'tables'
p2937
(lp2938
I1
aF5.0
asS'goodness'
p2939
(lp2940
I1
aF5.0
asS'cake flavours'
p2941
(lp2942
I1
aF4.5
asS'partner'
p2943
(lp2944
I2
aF9.0
asS'banana split'
p2945
(lp2946
I1
aF4.5
asS'everyday'
p2947
(lp2948
I2
aF9.5
asS'cream'
p2949
(lp2950
I2
aF9.0
asS'milano outlet'
p2951
(lp2952
I1
aF5.0
asS'ratings'
p2953
(lp2954
I2
aF9.0
asS'decor'
p2955
(lp2956
I1
aF4.5
asS'lemon'
p2957
(lp2958
I2
aF8.5
asS'variety'
p2959
(lp2960
I5
aF22.5
asS'concoction'
p2961
(lp2962
I1
aF5.0
asS'indiranagar'
p2963
(lp2964
I2
aF9.5
asS'quality ice creams'
p2965
(lp2966
I2
aF9.0
asS'die hard icecream fan'
p2967
(lp2968
I1
aF5.0
asS'chocolate flavors..'
p2969
(lp2970
I1
aF4.5
asS'indiranagar opposite'
p2971
(lp2972
I1
aF4.0
asS'branch'
p2973
(lp2974
I1
aF5.0
asS'ice-creams'
p2975
(lp2976
I3
aF14.0
asS'scopes'
p2977
(lp2978
I1
aF4.5
asS'pantaloons'
p2979
(lp2980
I1
aF5.0
asS'great.i'
p2981
(lp2982
I1
aF4.0
asS'truffles'
p2983
(lp2984
I2
aF9.0
asS'ice cream cake slice'
p2985
(lp2986
I1
aF4.5
asS'pain'
p2987
(lp2988
I1
aF5.0
asS'again'
p2989
(lp2990
I1
aF5.0
asS'favourite'
p2991
(lp2992
I2
aF9.5
asS'( dont'
p2993
(lp2994
I1
aF5.0
asS'price'
p2995
(lp2996
I4
aF19.5
asS'mother'
p2997
(lp2998
I1
aF4.5
asS'time..'
p2999
(lp3000
I1
aF4.5
asS'stay'
p3001
(lp3002
I2
aF9.0
asS'dessert lovers'
p3003
(lp3004
I1
aF5.0
asS'friend'
p3005
(lp3006
I1
aF4.0
asS'white chocolate ice cream'
p3007
(lp3008
I2
aF9.0
asS'friends'
p3009
(lp3010
I3
aF14.0
asS'lame picture'
p3011
(lp3012
I1
aF5.0
asS'places..guys'
p3013
(lp3014
I1
aF5.0
asS'absolute value'
p3015
(lp3016
I1
aF4.5
asS'notch'
p3017
(lp3018
I1
aF5.0
asS'crepe'
p3019
(lp3020
I3
aF13.5
asS'spirulina'
p3021
(lp3022
I1
aF5.0
asS'extra white ice cream'
p3023
(lp3024
I1
aF4.5
asS'gelato'
p3025
(lp3026
I5
aF24.0
asS'ice creams'
p3027
(lp3028
I5
aF22.0
asS'youre'
p3029
(lp3030
I1
aF4.0
asS'milano'
p3031
(lp3032
I2
aF8.5
asS'strawberry'
p3033
(lp3034
I2
aF6.5
asS'tiramisu icecream'
p3035
(lp3036
I2
aF9.0
asS'lots'
p3037
(lp3038
I1
aF5.0
asS'portion'
p3039
(lp3040
I1
aF4.5
asS'gelato parlour'
p3041
(lp3042
I2
aF8.5
asS'nice place'
p3043
(lp3044
I1
aF5.0
asS'time'
p3045
(lp3046
I8
aF37.5
asS'pleasure'
p3047
(lp3048
I1
aF5.0
asS'berries'
p3049
(lp3050
I4
aF18.5
asS'superbits'
p3051
(lp3052
I1
aF4.5
asS'quantity'
p3053
(lp3054
I2
aF9.0
assS'52459'
p3055
(dp3056
S'forget'
p3057
(lp3058
I1
aF4.5
asS'poori'
p3059
(lp3060
I3
aF12.5
asS'landmark breakfast joint'
p3061
(lp3062
I1
aF4.5
asS'cuppa'
p3063
(lp3064
I2
aF8.0
asS'benne masala dosa'
p3065
(lp3066
I13
aF56.5
asS'ambience'
p3067
(lp3068
I6
aF25.5
asS'amazing experience'
p3069
(lp3070
I1
aF4.0
asS'siddanna'
p3071
(lp3072
I1
aF2.0
asS'worth'
p3073
(lp3074
I1
aF4.5
asS'waiters'
p3075
(lp3076
I1
aF4.0
asS'coconut flavour.the benne masala dosa'
p3077
(lp3078
I1
aF4.5
asS'dosa lovers'
p3079
(lp3080
I2
aF9.0
asS'corner store'
p3081
(lp3082
I1
aF4.5
asS'school'
p3083
(lp3084
I3
aF12.5
asS'tasteless rava'
p3085
(lp3086
I1
aF2.0
asS'specialties'
p3087
(lp3088
I2
aF10.0
asS'quick'
p3089
(lp3090
I3
aF12.5
asS'benne dosas'
p3091
(lp3092
I2
aF9.5
asS'chalukya'
p3093
(lp3094
I1
aF4.5
asS'streets'
p3095
(lp3096
I2
aF8.0
asS'street'
p3097
(lp3098
I2
aF9.0
asS'bangalore.its benne dosa'
p3099
(lp3100
I2
aF8.0
asS'saturday morning'
p3101
(lp3102
I1
aF4.0
asS'hesitation'
p3103
(lp3104
I3
aF12.5
asS'saturday morning..'
p3105
(lp3106
I1
aF4.5
asS'benne masala dosa..'
p3107
(lp3108
I1
aF4.5
asS'overload'
p3109
(lp3110
I1
aF4.5
asS'plain benne dosa'
p3111
(lp3112
I1
aF5.0
asS'speed service'
p3113
(lp3114
I1
aF4.5
asS'health freak myt'
p3115
(lp3116
I2
aF8.0
asS'poori bhaji'
p3117
(lp3118
I2
aF8.0
asS'kesari bhath'
p3119
(lp3120
I1
aF2.0
asS'others'
p3121
(lp3122
I1
aF4.0
asS'good..'
p3123
(lp3124
I1
aF4.5
asS'wait'
p3125
(lp3126
I4
aF17.0
asS'experience'
p3127
(lp3128
I1
aF4.5
asS'vidyarthi bhavan lovers'
p3129
(lp3130
I1
aF5.0
asS'weekday'
p3131
(lp3132
I2
aF9.0
asS'spices'
p3133
(lp3134
I1
aF4.5
asS'thats'
p3135
(lp3136
I1
aF4.5
asS'trademark bene'
p3137
(lp3138
I1
aF4.5
asS'bangalore..'
p3139
(lp3140
I1
aF4.5
asS'visit'
p3141
(lp3142
I5
aF22.0
asS'south indian fast food restaurant'
p3143
(lp3144
I2
aF9.0
asS'ground floor'
p3145
(lp3146
I2
aF9.0
asS'manglore bajjis'
p3147
(lp3148
I1
aF4.5
asS'today'
p3149
(lp3150
I3
aF14.5
asS'upma'
p3151
(lp3152
I1
aF4.5
asS'name'
p3153
(lp3154
I1
aF4.5
asS'company'
p3155
(lp3156
I2
aF8.0
asS'award'
p3157
(lp3158
I2
aF8.0
asS'masala inside'
p3159
(lp3160
I1
aF5.0
asS'known'
p3161
(lp3162
I2
aF8.0
asS'benne saagu dosa'
p3163
(lp3164
I1
aF4.5
asS'town'
p3165
(lp3166
I1
aF4.5
asS'none'
p3167
(lp3168
I2
aF8.0
asS'outcast status'
p3169
(lp3170
I1
aF4.5
asS'reviews'
p3171
(lp3172
I2
aF8.0
asS'came..'
p3173
(lp3174
I1
aF4.5
asS'mall'
p3175
(lp3176
I2
aF8.0
asS'place nevertheless'
p3177
(lp3178
I1
aF4.0
asS'bites'
p3179
(lp3180
I2
aF9.0
asS'order mangalore bajji'
p3181
(lp3182
I1
aF3.5
asS'crunch sound'
p3183
(lp3184
I2
aF9.0
asS'google searches'
p3185
(lp3186
I2
aF8.0
asS'heard'
p3187
(lp3188
I1
aF4.0
asS'veg south indian food'
p3189
(lp3190
I2
aF8.0
asS'salty'
p3191
(lp3192
I1
aF4.5
asS'something'
p3193
(lp3194
I1
aF5.0
asS'bastardization'
p3195
(lp3196
I2
aF8.0
asS'onions'
p3197
(lp3198
I1
aF4.0
asS'dont miss'
p3199
(lp3200
I1
aF4.5
asS'menus'
p3201
(lp3202
I3
aF12.5
asS'bajji availabe'
p3203
(lp3204
I1
aF3.5
asS'puri'
p3205
(lp3206
I4
aF16.0
asS'stock'
p3207
(lp3208
I2
aF8.0
asS'someone whozzz'
p3209
(lp3210
I2
aF8.0
asS'coming'
p3211
(lp3212
I1
aF4.0
asS'morning breakfast'
p3213
(lp3214
I1
aF3.5
asS'potato palya'
p3215
(lp3216
I1
aF4.5
asS'hearing bajji'
p3217
(lp3218
I1
aF3.5
asS'south indian breakfast place'
p3219
(lp3220
I2
aF8.0
asS'benne'
p3221
(lp3222
I1
aF4.0
asS'pleasure'
p3223
(lp3224
I3
aF13.5
asS'potato pulya'
p3225
(lp3226
I1
aF5.0
asS'order'
p3227
(lp3228
I5
aF20.5
asS'help'
p3229
(lp3230
I3
aF12.5
asS'dosa camp'
p3231
(lp3232
I1
aF2.0
asS'find'
p3233
(lp3234
I1
aF4.5
asS'hungry eyes'
p3235
(lp3236
I1
aF4.0
asS'looks'
p3237
(lp3238
I1
aF4.5
asS'brim'
p3239
(lp3240
I1
aF4.0
asS'existence'
p3241
(lp3242
I2
aF8.0
asS'steel glasses'
p3243
(lp3244
I1
aF4.5
asS'food joints'
p3245
(lp3246
I1
aF4.5
asS'counter didnt help'
p3247
(lp3248
I2
aF8.0
asS'till'
p3249
(lp3250
I2
aF10.0
asS'expectations'
p3251
(lp3252
I1
aF2.0
asS'platform'
p3253
(lp3254
I2
aF8.0
asS'parts'
p3255
(lp3256
I2
aF8.0
asS'accompaniments'
p3257
(lp3258
I1
aF4.5
asS'crowds'
p3259
(lp3260
I2
aF8.0
asS'coffee'
p3261
(lp3262
I8
aF33.5
asS'evening'
p3263
(lp3264
I2
aF8.0
asS'food'
p3265
(lp3266
I9
aF41.0
asS'wait times'
p3267
(lp3268
I1
aF4.0
asS'hands'
p3269
(lp3270
I2
aF10.0
asS'front'
p3271
(lp3272
I2
aF8.0
asS'benne dosa'
p3273
(lp3274
I6
aF26.0
asS'today morning'
p3275
(lp3276
I1
aF3.5
asS'thank god'
p3277
(lp3278
I1
aF4.5
asS'benne dose'
p3279
(lp3280
I1
aF4.0
asS'crunchy'
p3281
(lp3282
I2
aF8.0
asS'freshness'
p3283
(lp3284
I1
aF5.0
asS'filling'
p3285
(lp3286
I1
aF4.0
asS'tiring sports session'
p3287
(lp3288
I1
aF5.0
asS'meal'
p3289
(lp3290
I5
aF22.0
asS'everyone'
p3291
(lp3292
I4
aF17.0
asS'evening snack'
p3293
(lp3294
I1
aF4.5
asS'kara bath'
p3295
(lp3296
I1
aF3.5
asS'forgot'
p3297
(lp3298
I1
aF2.0
asS'saturday'
p3299
(lp3300
I2
aF8.0
asS'vada'
p3301
(lp3302
I4
aF17.0
asS'chaos'
p3303
(lp3304
I2
aF8.0
asS'cause'
p3305
(lp3306
I2
aF10.0
asS'pudina'
p3307
(lp3308
I1
aF4.5
asS'malleshwaram'
p3309
(lp3310
I8
aF35.0
asS'struggle'
p3311
(lp3312
I2
aF8.0
asS'members'
p3313
(lp3314
I1
aF3.5
asS'care'
p3315
(lp3316
I2
aF8.0
asS'waiter'
p3317
(lp3318
I8
aF32.5
asS'thing'
p3319
(lp3320
I2
aF9.5
asS'heck'
p3321
(lp3322
I1
aF2.0
asS'place'
p3323
(lp3324
I26
aF110.0
asS'excellent filter coffee.ctr-'
p3325
(lp3326
I1
aF4.0
asS'masala wasnt'
p3327
(lp3328
I2
aF8.0
asS'shiv sagar'
p3329
(lp3330
I1
aF5.0
asS'golibaje'
p3331
(lp3332
I1
aF4.0
asS'feel'
p3333
(lp3334
I1
aF4.5
asS'number'
p3335
(lp3336
I2
aF10.0
asS'busy streets'
p3337
(lp3338
I2
aF10.0
asS'floors'
p3339
(lp3340
I2
aF10.0
asS'thick'
p3341
(lp3342
I3
aF13.5
asS'quality'
p3343
(lp3344
I3
aF14.5
asS'dosa value'
p3345
(lp3346
I1
aF5.0
asS'size'
p3347
(lp3348
I1
aF3.5
asS'service'
p3349
(lp3350
I6
aF26.0
asS'bite'
p3351
(lp3352
I3
aF14.0
asS'vb burning'
p3353
(lp3354
I1
aF5.0
asS'pudina chutney'
p3355
(lp3356
I2
aF10.0
asS'malleshwaram grounds'
p3357
(lp3358
I1
aF5.0
asS'dosa fluffy inside'
p3359
(lp3360
I2
aF8.0
asS'friend'
p3361
(lp3362
I1
aF4.5
asS'amazing place'
p3363
(lp3364
I1
aF5.0
asS'saagu'
p3365
(lp3366
I1
aF4.5
asS'longgggggg waits'
p3367
(lp3368
I1
aF3.5
asS'part'
p3369
(lp3370
I1
aF5.0
asS'accompaniment'
p3371
(lp3372
I2
aF9.0
asS'pure ghee..'
p3373
(lp3374
I2
aF8.0
asS'crispy golden dosas'
p3375
(lp3376
I1
aF4.5
asS'please whenever'
p3377
(lp3378
I1
aF4.5
asS'idli'
p3379
(lp3380
I3
aF13.5
asS'coconut'
p3381
(lp3382
I1
aF4.0
asS'bit sad'
p3383
(lp3384
I1
aF3.5
asS'ages'
p3385
(lp3386
I2
aF10.0
asS'tastes'
p3387
(lp3388
I1
aF4.5
asS'breakfast'
p3389
(lp3390
I3
aF14.0
asS'dosas'
p3391
(lp3392
I9
aF39.0
asS'orders'
p3393
(lp3394
I1
aF2.0
asS'filter coffee'
p3395
(lp3396
I6
aF28.5
asS'hardcore coffee lover'
p3397
(lp3398
I2
aF8.0
asS'inform'
p3399
(lp3400
I1
aF4.0
asS'visit ctr'
p3401
(lp3402
I1
aF4.5
asS'moist'
p3403
(lp3404
I2
aF9.0
asS'can.\xe2\x80\x8b'
p3405
(lp3406
I1
aF4.0
asS'mouth'
p3407
(lp3408
I1
aF4.5
asS'pooris'
p3409
(lp3410
I1
aF4.5
asS'mysore masala'
p3411
(lp3412
I1
aF5.0
asS'vidyarthi bhavans'
p3413
(lp3414
I1
aF5.0
asS'came'
p3415
(lp3416
I1
aF3.5
asS'quantity'
p3417
(lp3418
I2
aF9.5
asS'coffee..'
p3419
(lp3420
I1
aF4.5
asS'cheap'
p3421
(lp3422
I1
aF4.5
asS'corner'
p3423
(lp3424
I2
aF9.0
asS'thick dosa crispy'
p3425
(lp3426
I1
aF5.0
asS'staff'
p3427
(lp3428
I2
aF8.5
asS'commonplace chutney'
p3429
(lp3430
I1
aF4.0
asS'menu'
p3431
(lp3432
I2
aF8.0
asS'weekends'
p3433
(lp3434
I2
aF10.0
asS'fans'
p3435
(lp3436
I1
aF4.0
asS'bliss'
p3437
(lp3438
I1
aF5.0
asS'plate'
p3439
(lp3440
I2
aF10.0
asS'chow chow bath'
p3441
(lp3442
I1
aF3.5
asS'pocket'
p3443
(lp3444
I2
aF8.5
asS'words'
p3445
(lp3446
I2
aF8.0
asS'breakfast time'
p3447
(lp3448
I2
aF10.0
asS'benne plain'
p3449
(lp3450
I1
aF4.5
asS'chutney'
p3451
(lp3452
I3
aF13.5
asS'bestest'
p3453
(lp3454
I1
aF4.5
asS'bangalorean'
p3455
(lp3456
I1
aF4.5
asS'morning'
p3457
(lp3458
I2
aF8.0
asS'twice'
p3459
(lp3460
I2
aF8.0
asS'filter kaapi'
p3461
(lp3462
I1
aF4.0
asS'recommendations'
p3463
(lp3464
I2
aF8.0
asS'grab'
p3465
(lp3466
I2
aF9.0
asS'interiors'
p3467
(lp3468
I2
aF10.0
asS'restaurants'
p3469
(lp3470
I5
aF22.5
asS'seats'
p3471
(lp3472
I1
aF4.0
asS'seat'
p3473
(lp3474
I5
aF20.0
asS'college'
p3475
(lp3476
I2
aF8.0
asS'anyways'
p3477
(lp3478
I2
aF8.0
asS'idlis'
p3479
(lp3480
I2
aF9.0
asS'review'
p3481
(lp3482
I2
aF8.0
asS'regularvisitor'
p3483
(lp3484
I1
aF4.5
asS'puri sabzi'
p3485
(lp3486
I2
aF8.0
asS'outside'
p3487
(lp3488
I1
aF4.5
asS'tiffin room'
p3489
(lp3490
I3
aF12.5
asS'rava dosa didnt pass muster'
p3491
(lp3492
I1
aF4.0
asS'ability'
p3493
(lp3494
I1
aF5.0
asS'dosa today'
p3495
(lp3496
I1
aF4.0
asS'yumm'
p3497
(lp3498
I1
aF4.5
asS'delicious.the ghee dosa'
p3499
(lp3500
I1
aF4.5
asS'awards'
p3501
(lp3502
I2
aF9.0
asS'diners'
p3503
(lp3504
I3
aF13.0
asS'bit dis'
p3505
(lp3506
I1
aF3.5
asS'restaurant'
p3507
(lp3508
I2
aF9.0
asS'palya'
p3509
(lp3510
I1
aF4.0
asS'country'
p3511
(lp3512
I2
aF8.0
asS'ctr today.. everyone'
p3513
(lp3514
I1
aF4.5
asS'kaapi'
p3515
(lp3516
I2
aF8.0
asS'yummy benne masala dosas'
p3517
(lp3518
I2
aF10.0
asS'comes'
p3519
(lp3520
I1
aF4.5
asS'shree sagar'
p3521
(lp3522
I1
aF4.5
asS'wall'
p3523
(lp3524
I3
aF12.5
asS'looking building'
p3525
(lp3526
I2
aF8.0
asS'period'
p3527
(lp3528
I1
aF3.5
asS'part sign language'
p3529
(lp3530
I2
aF8.0
asS'table'
p3531
(lp3532
I2
aF8.0
asS'trust'
p3533
(lp3534
I1
aF4.5
asS'crispy'
p3535
(lp3536
I3
aF13.5
asS'cares'
p3537
(lp3538
I2
aF10.0
asS'hindu'
p3539
(lp3540
I2
aF8.0
asS'bengaluru'
p3541
(lp3542
I2
aF9.0
asS'treat'
p3543
(lp3544
I1
aF4.5
asS'interest'
p3545
(lp3546
I1
aF2.0
asS'incompetent'
p3547
(lp3548
I1
aF4.5
asS'evenings.reminds'
p3549
(lp3550
I1
aF5.0
asS'ghee'
p3551
(lp3552
I4
aF17.0
asS'banglore.the'
p3553
(lp3554
I1
aF4.5
asS'dosa outlet'
p3555
(lp3556
I1
aF2.0
asS'lives'
p3557
(lp3558
I1
aF4.5
asS'prices'
p3559
(lp3560
I1
aF4.5
asS'masala dosa'
p3561
(lp3562
I8
aF35.5
asS'kharabath'
p3563
(lp3564
I1
aF4.5
asS'decades'
p3565
(lp3566
I1
aF4.0
asS'sunday starter'
p3567
(lp3568
I1
aF4.5
asS'kick'
p3569
(lp3570
I1
aF5.0
asS'zomato'
p3571
(lp3572
I1
aF4.5
asS'equator'
p3573
(lp3574
I1
aF5.0
asS'benne masala dosas'
p3575
(lp3576
I2
aF8.5
asS'bucks'
p3577
(lp3578
I2
aF10.0
asS'mangalore bajji'
p3579
(lp3580
I4
aF18.0
asS'queue'
p3581
(lp3582
I1
aF4.5
asS'mins'
p3583
(lp3584
I3
aF12.0
asS'god help'
p3585
(lp3586
I1
aF5.0
asS'bajji'
p3587
(lp3588
I1
aF3.5
asS'mangaluru bajjis'
p3589
(lp3590
I1
aF4.5
asS'desert island'
p3591
(lp3592
I1
aF5.0
asS'frndz'
p3593
(lp3594
I2
aF8.0
asS'party'
p3595
(lp3596
I2
aF8.0
asS'disappointment'
p3597
(lp3598
I1
aF2.0
asS'malleswaram dosa'
p3599
(lp3600
I2
aF8.0
asS'landmark restaurant'
p3601
(lp3602
I1
aF4.0
asS'butter'
p3603
(lp3604
I7
aF32.5
asS'coconut white chutney'
p3605
(lp3606
I1
aF4.0
asS'nonetheless'
p3607
(lp3608
I1
aF3.5
asS'good reason'
p3609
(lp3610
I1
aF4.5
asS'breakfast items'
p3611
(lp3612
I1
aF3.5
asS'display menu'
p3613
(lp3614
I1
aF4.5
asS'dosa'
p3615
(lp3616
I16
aF67.0
asS'rest'
p3617
(lp3618
I3
aF13.5
asS'attraction'
p3619
(lp3620
I1
aF5.0
asS'death row'
p3621
(lp3622
I1
aF5.0
asS'paul'
p3623
(lp3624
I1
aF5.0
asS'amazing atmosphere'
p3625
(lp3626
I2
aF8.0
asS'red chutney'
p3627
(lp3628
I1
aF5.0
asS'tables'
p3629
(lp3630
I2
aF10.0
asS'prison'
p3631
(lp3632
I1
aF5.0
asS'tasty dosa'
p3633
(lp3634
I1
aF4.5
asS'mouth..'
p3635
(lp3636
I1
aF4.5
asS'kills'
p3637
(lp3638
I1
aF4.5
asS'read'
p3639
(lp3640
I2
aF8.0
asS'coconut chutney'
p3641
(lp3642
I4
aF19.0
asS'kara bhath'
p3643
(lp3644
I1
aF2.0
asS'world'
p3645
(lp3646
I2
aF9.0
asS'kesari bath'
p3647
(lp3648
I3
aF12.5
asS'crisp'
p3649
(lp3650
I5
aF22.0
asS'plain bene dosa'
p3651
(lp3652
I1
aF4.5
asS'entrance door'
p3653
(lp3654
I2
aF8.0
asS'fianc\xc3\xa9'
p3655
(lp3656
I1
aF4.5
asS'tasty dish'
p3657
(lp3658
I1
aF2.0
asS'soft'
p3659
(lp3660
I2
aF9.0
asS'crowd'
p3661
(lp3662
I3
aF12.5
asS'people'
p3663
(lp3664
I6
aF25.0
asS'vintages interiors'
p3665
(lp3666
I1
aF4.5
asS'stuffs'
p3667
(lp3668
I1
aF2.0
asS'sunday afternoon'
p3669
(lp3670
I1
aF4.0
asS'server'
p3671
(lp3672
I1
aF4.5
asS'breakfast regulars'
p3673
(lp3674
I1
aF4.0
asS'ourselves'
p3675
(lp3676
I2
aF8.0
asS'scale'
p3677
(lp3678
I2
aF8.0
asS'butter/ ghee'
p3679
(lp3680
I1
aF4.5
asS'bottom'
p3681
(lp3682
I1
aF4.5
asS'rava'
p3683
(lp3684
I4
aF16.5
asS'office crowd'
p3685
(lp3686
I2
aF9.0
asS'everything'
p3687
(lp3688
I2
aF10.0
asS'cradle'
p3689
(lp3690
I1
aF4.5
asS'nothing fancy'
p3691
(lp3692
I1
aF4.5
asS'vintage dosa place'
p3693
(lp3694
I1
aF4.5
asS'shri sagar'
p3695
(lp3696
I2
aF8.0
asS'tiffin system'
p3697
(lp3698
I1
aF4.5
asS'part kannada'
p3699
(lp3700
I2
aF8.0
asS'bangalore'
p3701
(lp3702
I13
aF58.5
asS'margosa road'
p3703
(lp3704
I1
aF4.5
asS'anything'
p3705
(lp3706
I1
aF5.0
asS'side'
p3707
(lp3708
I1
aF5.0
asS'bestseller'
p3709
(lp3710
I2
aF9.0
asS'dinner'
p3711
(lp3712
I2
aF8.0
asS'afternoon'
p3713
(lp3714
I2
aF10.0
asS'presence'
p3715
(lp3716
I1
aF4.0
asS'yummy meal'
p3717
(lp3718
I1
aF5.0
asS'kannada menu'
p3719
(lp3720
I2
aF8.0
asS'gon na come'
p3721
(lp3722
I1
aF4.5
asS'servers'
p3723
(lp3724
I1
aF5.0
asS'doesnt'
p3725
(lp3726
I1
aF5.0
asS'legends'
p3727
(lp3728
I2
aF8.0
asS'area'
p3729
(lp3730
I2
aF9.0
asS'salt n'
p3731
(lp3732
I1
aF2.0
asS'heritage'
p3733
(lp3734
I2
aF10.0
asS'bangalores'
p3735
(lp3736
I1
aF2.0
asS'head'
p3737
(lp3738
I1
aF4.5
asS'spicy'
p3739
(lp3740
I3
aF12.5
asS'buttery'
p3741
(lp3742
I1
aF5.0
asS'amongst'
p3743
(lp3744
I2
aF10.0
asS'rava idli'
p3745
(lp3746
I4
aF14.5
asS'places'
p3747
(lp3748
I2
aF6.5
asS'inside'
p3749
(lp3750
I3
aF12.5
asS'piece'
p3751
(lp3752
I1
aF4.5
asS'minutes'
p3753
(lp3754
I7
aF29.5
asS'sambar'
p3755
(lp3756
I2
aF9.0
asS'taste'
p3757
(lp3758
I3
aF14.0
asS'vinayaka mylari'
p3759
(lp3760
I2
aF8.0
asS'kannada'
p3761
(lp3762
I1
aF4.5
asS'bene masala dosa'
p3763
(lp3764
I1
aF4.5
asS'tasty'
p3765
(lp3766
I3
aF12.0
asS'chutneys- pudina'
p3767
(lp3768
I1
aF4.0
asS'trip'
p3769
(lp3770
I2
aF8.0
asS'-one'
p3771
(lp3772
I1
aF5.0
asS'floor'
p3773
(lp3774
I2
aF9.0
asS'amounts'
p3775
(lp3776
I1
aF5.0
asS'mysore'
p3777
(lp3778
I2
aF8.0
asS'icon food joint'
p3779
(lp3780
I1
aF5.0
asS'coffees'
p3781
(lp3782
I1
aF4.0
asS'try. < span'
p3783
(lp3784
I1
aF4.0
asS'nice'
p3785
(lp3786
I1
aF3.5
asS'ages.i remember'
p3787
(lp3788
I1
aF5.0
asS'favourite'
p3789
(lp3790
I1
aF4.5
asS'chance'
p3791
(lp3792
I4
aF18.0
asS'journey'
p3793
(lp3794
I1
aF4.5
asS'stomach filler'
p3795
(lp3796
I1
aF4.5
asS'token system'
p3797
(lp3798
I1
aF4.5
asS'weekend'
p3799
(lp3800
I1
aF4.0
asS'building'
p3801
(lp3802
I2
aF9.0
asS'mangalore bajjis'
p3803
(lp3804
I1
aF4.5
asS'amazing dosas.it'
p3805
(lp3806
I1
aF4.5
asS'food critics'
p3807
(lp3808
I2
aF8.0
asS'sambhar'
p3809
(lp3810
I3
aF12.5
asS'chutneys'
p3811
(lp3812
I2
aF8.0
asS'time'
p3813
(lp3814
I8
aF34.0
asS'food item'
p3815
(lp3816
I2
aF8.0
asS'steal deal'
p3817
(lp3818
I1
aF5.0
assS'55642'
p3819
(dp3820
sS'58243'
p3821
(dp3822
S'forget'
p3823
(lp3824
I2
aF8.0
asS'chinese'
p3825
(lp3826
I4
aF17.0
asS'whoever'
p3827
(lp3828
I2
aF8.0
asS'excellent'
p3829
(lp3830
I1
aF4.0
asS'appetite'
p3831
(lp3832
I1
aF4.5
asS'guava'
p3833
(lp3834
I2
aF8.0
asS'children'
p3835
(lp3836
I1
aF4.5
asS'pad thai'
p3837
(lp3838
I1
aF4.0
asS'khao pahd chicken'
p3839
(lp3840
I1
aF4.5
asS'main course.the brownie dessert'
p3841
(lp3842
I1
aF4.0
asS'show'
p3843
(lp3844
I2
aF9.0
asS'veg dishes'
p3845
(lp3846
I1
aF4.5
asS'lamb'
p3847
(lp3848
I6
aF25.0
asS'ambience'
p3849
(lp3850
I12
aF50.0
asS'glass wall'
p3851
(lp3852
I2
aF8.0
asS'perfect score'
p3853
(lp3854
I3
aF13.0
asS'regrets'
p3855
(lp3856
I1
aF4.5
asS'washroom'
p3857
(lp3858
I2
aF8.0
asS'brown'
p3859
(lp3860
I2
aF8.0
asS'koramangala area'
p3861
(lp3862
I1
aF4.5
asS'dessert'
p3863
(lp3864
I2
aF8.0
asS'weekend lunch'
p3865
(lp3866
I2
aF8.0
asS'level'
p3867
(lp3868
I1
aF4.5
asS'powdery.i'
p3869
(lp3870
I6
aF23.5
asS'vibes'
p3871
(lp3872
I2
aF8.0
asS'rendang'
p3873
(lp3874
I6
aF23.5
asS'skewer'
p3875
(lp3876
I2
aF9.0
asS'seafood soup'
p3877
(lp3878
I4
aF16.5
asS'remembering chinese dishes'
p3879
(lp3880
I1
aF4.5
asS'fritter'
p3881
(lp3882
I1
aF3.5
asS'basil dimsum'
p3883
(lp3884
I2
aF8.0
asS'design'
p3885
(lp3886
I6
aF23.5
asS'crab meat'
p3887
(lp3888
I1
aF3.5
asS'drinks'
p3889
(lp3890
I5
aF21.0
asS'tim tai deli bent'
p3891
(lp3892
I6
aF23.5
asS'dimsum'
p3893
(lp3894
I3
aF13.0
asS'barbecue chicken buns'
p3895
(lp3896
I1
aF4.0
asS'body'
p3897
(lp3898
I4
aF16.5
asS'taste buds'
p3899
(lp3900
I1
aF4.5
asS'nasi goreng chicken'
p3901
(lp3902
I1
aF4.5
asS'hours'
p3903
(lp3904
I1
aF4.0
asS'kids'
p3905
(lp3906
I2
aF7.5
asS'items'
p3907
(lp3908
I1
aF4.0
asS'experience'
p3909
(lp3910
I3
aF12.5
asS'entrees'
p3911
(lp3912
I3
aF12.5
asS'options'
p3913
(lp3914
I3
aF11.5
asS'bamee goreng'
p3915
(lp3916
I6
aF23.5
asS'plain rice'
p3917
(lp3918
I2
aF8.0
asS'love'
p3919
(lp3920
I1
aF4.0
asS'apple'
p3921
(lp3922
I3
aF11.5
asS'family'
p3923
(lp3924
I1
aF4.0
asS'names'
p3925
(lp3926
I2
aF8.0
asS'duck'
p3927
(lp3928
I4
aF16.5
asS'lunch twice'
p3929
(lp3930
I1
aF4.0
asS'koramangalaa'
p3931
(lp3932
I1
aF4.0
asS'fusion place'
p3933
(lp3934
I3
aF12.5
asS'visit'
p3935
(lp3936
I2
aF8.0
asS'tim tie deserves'
p3937
(lp3938
I1
aF3.5
asS'thai noodles'
p3939
(lp3940
I2
aF8.0
asS'tom yum soup'
p3941
(lp3942
I1
aF4.5
asS'apple fritters'
p3943
(lp3944
I1
aF3.5
asS'lady love'
p3945
(lp3946
I2
aF8.0
asS'entrance'
p3947
(lp3948
I3
aF12.0
asS'females'
p3949
(lp3950
I1
aF4.5
asS'advance'
p3951
(lp3952
I1
aF4.5
asS'south east asian'
p3953
(lp3954
I4
aF16.5
asS'scallions'
p3955
(lp3956
I4
aF16.5
asS'spring rolls'
p3957
(lp3958
I1
aF4.5
asS'starter'
p3959
(lp3960
I2
aF9.0
asS'right amount'
p3961
(lp3962
I1
aF4.5
asS'salad'
p3963
(lp3964
I1
aF4.5
asS'ideal place'
p3965
(lp3966
I4
aF16.5
asS'work'
p3967
(lp3968
I1
aF3.5
asS'worth'
p3969
(lp3970
I4
aF17.5
asS'reviews'
p3971
(lp3972
I3
aF13.0
asS'soup'
p3973
(lp3974
I7
aF29.0
asS'sweeter'
p3975
(lp3976
I1
aF3.5
asS'didnt'
p3977
(lp3978
I5
aF20.5
asS'veggies'
p3979
(lp3980
I3
aF13.5
asS'pieces'
p3981
(lp3982
I1
aF4.5
asS'salty'
p3983
(lp3984
I10
aF40.0
asS'something'
p3985
(lp3986
I2
aF9.0
asS'onions'
p3987
(lp3988
I1
aF4.5
asS'pink'
p3989
(lp3990
I1
aF4.5
asS'shanghai chicken dimsums'
p3991
(lp3992
I3
aF12.5
asS'turn'
p3993
(lp3994
I3
aF12.5
asS'faults'
p3995
(lp3996
I3
aF13.0
asS'stir'
p3997
(lp3998
I3
aF12.5
asS'thai curry vd rice'
p3999
(lp4000
I1
aF4.5
asS'okay'
p4001
(lp4002
I1
aF4.0
asS'spitzer'
p4003
(lp4004
I6
aF23.5
asS'chilli corriander noodles'
p4005
(lp4006
I2
aF10.0
asS'types'
p4007
(lp4008
I1
aF4.5
asS'remember'
p4009
(lp4010
I2
aF8.0
asS'light'
p4011
(lp4012
I2
aF8.0
asS'takeaway'
p4013
(lp4014
I1
aF4.5
asS'basket'
p4015
(lp4016
I2
aF8.0
asS'selling point'
p4017
(lp4018
I4
aF16.5
asS'order'
p4019
(lp4020
I7
aF28.5
asS'course'
p4021
(lp4022
I7
aF32.0
asS'suiting'
p4023
(lp4024
I6
aF23.5
asS'tuesday.its'
p4025
(lp4026
I6
aF23.5
asS'bunch'
p4027
(lp4028
I1
aF4.0
asS'style'
p4029
(lp4030
I4
aF16.5
asS'group'
p4031
(lp4032
I1
aF4.5
asS'koramangla'
p4033
(lp4034
I6
aF23.5
asS'appetizers'
p4035
(lp4036
I1
aF4.5
asS'expectations'
p4037
(lp4038
I6
aF25.0
asS'coconut milk broth'
p4039
(lp4040
I4
aF16.5
asS'choose'
p4041
(lp4042
I1
aF4.0
asS'orange'
p4043
(lp4044
I2
aF8.0
asS'hidden'
p4045
(lp4046
I1
aF4.0
asS'sauce'
p4047
(lp4048
I3
aF13.0
asS'someone'
p4049
(lp4050
I1
aF4.5
asS'food'
p4051
(lp4052
I16
aF65.0
asS'baby corn signature starter'
p4053
(lp4054
I1
aF4.0
asS'lunch'
p4055
(lp4056
I6
aF27.0
asS'mandarin drink everything'
p4057
(lp4058
I2
aF8.0
asS'barbecue bun'
p4059
(lp4060
I1
aF4.0
asS'establishment'
p4061
(lp4062
I2
aF8.0
asS'perfect dish'
p4063
(lp4064
I4
aF16.5
asS'place..mandarin feast'
p4065
(lp4066
I1
aF4.0
asS'meal'
p4067
(lp4068
I1
aF4.0
asS'momos'
p4069
(lp4070
I2
aF8.0
asS'tom kha soup'
p4071
(lp4072
I4
aF16.5
asS'starters-'
p4073
(lp4074
I1
aF4.0
asS'ice cream'
p4075
(lp4076
I3
aF11.5
asS'honey chilli sauce'
p4077
(lp4078
I1
aF4.0
asS'lamb gravy'
p4079
(lp4080
I1
aF4.0
asS'beauty'
p4081
(lp4082
I2
aF8.0
asS'leeks'
p4083
(lp4084
I2
aF8.0
asS'liveliness'
p4085
(lp4086
I2
aF8.0
asS'surprise'
p4087
(lp4088
I3
aF12.5
asS'cause'
p4089
(lp4090
I3
aF13.0
asS'envelop'
p4091
(lp4092
I2
aF8.0
asS'pleasant'
p4093
(lp4094
I1
aF3.5
asS'reason'
p4095
(lp4096
I2
aF8.0
asS'vegetarians'
p4097
(lp4098
I1
aF4.0
asS'tabasco'
p4099
(lp4100
I2
aF8.0
asS'chilli'
p4101
(lp4102
I4
aF16.5
asS'compote'
p4103
(lp4104
I1
aF3.5
asS'waiter'
p4105
(lp4106
I2
aF9.0
asS'days'
p4107
(lp4108
I1
aF4.5
asS'times'
p4109
(lp4110
I2
aF8.0
asS'thing'
p4111
(lp4112
I4
aF17.0
asS'place'
p4113
(lp4114
I19
aF79.0
asS'bit slow'
p4115
(lp4116
I1
aF4.5
asS'feel'
p4117
(lp4118
I2
aF8.0
asS'nasi goreng'
p4119
(lp4120
I2
aF9.0
asS'dint'
p4121
(lp4122
I1
aF3.5
asS'done'
p4123
(lp4124
I2
aF8.0
asS'downside'
p4125
(lp4126
I1
aF4.0
asS'tom yum soup main course- thai'
p4127
(lp4128
I2
aF8.0
asS'miss'
p4129
(lp4130
I1
aF4.0
asS'service'
p4131
(lp4132
I15
aF64.5
asS'fusion dishes'
p4133
(lp4134
I4
aF16.5
asS'caught'
p4135
(lp4136
I1
aF4.5
asS'weekdays'
p4137
(lp4138
I1
aF4.0
asS'clever name'
p4139
(lp4140
I4
aF16.5
asS'non spicy'
p4141
(lp4142
I1
aF3.5
asS'thai cuisine'
p4143
(lp4144
I1
aF4.0
asS'indoor tree feature'
p4145
(lp4146
I2
aF9.0
asS'part'
p4147
(lp4148
I3
aF14.5
asS'valet parking'
p4149
(lp4150
I1
aF4.0
asS'zomato ratings'
p4151
(lp4152
I3
aF12.5
asS'som tum thai'
p4153
(lp4154
I1
aF4.5
asS'thai'
p4155
(lp4156
I8
aF32.5
asS'kind'
p4157
(lp4158
I6
aF23.5
asS'tree'
p4159
(lp4160
I1
aF3.5
asS'tummy'
p4161
(lp4162
I2
aF8.0
asS'friend'
p4163
(lp4164
I2
aF9.0
asS'lover'
p4165
(lp4166
I1
aF3.5
asS'feeling'
p4167
(lp4168
I1
aF4.0
asS'bamee goreng noodles'
p4169
(lp4170
I3
aF12.5
asS'tim tai'
p4171
(lp4172
I13
aF53.0
asS'wasnt'
p4173
(lp4174
I1
aF4.0
asS'dimsum platter'
p4175
(lp4176
I5
aF21.5
asS'fillets'
p4177
(lp4178
I3
aF12.5
asS'drinks- cinnamon'
p4179
(lp4180
I2
aF8.0
asS'pacing'
p4181
(lp4182
I2
aF8.0
asS'tea flavour'
p4183
(lp4184
I1
aF4.0
asS'dishes'
p4185
(lp4186
I12
aF49.0
asS'kormangala'
p4187
(lp4188
I4
aF16.5
asS'note'
p4189
(lp4190
I3
aF12.5
asS'moist'
p4191
(lp4192
I4
aF16.5
asS'marination'
p4193
(lp4194
I1
aF4.0
asS'price'
p4195
(lp4196
I3
aF13.0
asS'plan'
p4197
(lp4198
I1
aF4.5
asS'vibrant pink n yellow decor'
p4199
(lp4200
I1
aF4.0
asS'average'
p4201
(lp4202
I3
aF11.5
asS'basil sauce'
p4203
(lp4204
I3
aF12.5
asS'setup doesnt'
p4205
(lp4206
I1
aF4.0
asS'fact'
p4207
(lp4208
I2
aF9.0
asS'affair'
p4209
(lp4210
I2
aF8.0
asS'atmosphere'
p4211
(lp4212
I4
aF16.5
asS'hunger'
p4213
(lp4214
I1
aF3.5
asS'aaaaand'
p4215
(lp4216
I3
aF13.0
asS'anyway'
p4217
(lp4218
I3
aF13.0
asS'bumpy start'
p4219
(lp4220
I2
aF8.0
asS'chicken'
p4221
(lp4222
I4
aF16.5
asS'reservation done'
p4223
(lp4224
I1
aF4.5
asS'staff'
p4225
(lp4226
I4
aF16.5
asS'satay'
p4227
(lp4228
I3
aF13.5
asS'menu'
p4229
(lp4230
I3
aF11.5
asS'starters'
p4231
(lp4232
I4
aF19.0
asS'pao chicken'
p4233
(lp4234
I2
aF10.0
asS'bakery course'
p4235
(lp4236
I1
aF4.5
asS'rice'
p4237
(lp4238
I11
aF44.0
asS'stop'
p4239
(lp4240
I3
aF13.0
asS'colleagues'
p4241
(lp4242
I1
aF4.0
asS'pocket'
p4243
(lp4244
I1
aF4.5
asS'batter'
p4245
(lp4246
I1
aF3.5
asS'perfection'
p4247
(lp4248
I3
aF14.0
asS'chicken satay'
p4249
(lp4250
I4
aF16.5
asS'combinations'
p4251
(lp4252
I6
aF23.5
asS'portions'
p4253
(lp4254
I3
aF14.0
asS'restrooms'
p4255
(lp4256
I3
aF12.5
asS'indoor seating.good job'
p4257
(lp4258
I6
aF23.5
asS'spicy stuff'
p4259
(lp4260
I1
aF3.5
asS'upscale asian look'
p4261
(lp4262
I4
aF16.5
asS'dipping sauce'
p4263
(lp4264
I4
aF16.5
asS'inside'
p4265
(lp4266
I7
aF30.5
asS'restaurants'
p4267
(lp4268
I4
aF17.0
asS'flavours'
p4269
(lp4270
I3
aF12.5
asS'chinese food'
p4271
(lp4272
I1
aF4.5
asS'cool ambience'
p4273
(lp4274
I1
aF4.0
asS'close'
p4275
(lp4276
I1
aF4.5
asS'noodles'
p4277
(lp4278
I12
aF49.5
asS'lots'
p4279
(lp4280
I2
aF8.0
asS'dimsums'
p4281
(lp4282
I2
aF7.5
asS'rave reviews'
p4283
(lp4284
I6
aF23.5
asS'outside'
p4285
(lp4286
I2
aF10.0
asS'thai mussaman curry'
p4287
(lp4288
I1
aF4.5
asS'terms'
p4289
(lp4290
I2
aF8.0
asS'cauliflower'
p4291
(lp4292
I1
aF4.5
asS'impression-'
p4293
(lp4294
I2
aF8.0
asS'come'
p4295
(lp4296
I3
aF13.0
asS'water'
p4297
(lp4298
I3
aF12.5
asS'side farthest'
p4299
(lp4300
I2
aF8.0
asS'disappointment'
p4301
(lp4302
I2
aF7.5
asS'cake anyway'
p4303
(lp4304
I1
aF4.0
asS'faces'
p4305
(lp4306
I1
aF3.5
asS'mini waterfall inside'
p4307
(lp4308
I2
aF8.0
asS'sweet'
p4309
(lp4310
I1
aF4.0
asS'starters- spicy soya'
p4311
(lp4312
I2
aF8.0
asS'crispy'
p4313
(lp4314
I3
aF12.5
asS'cuisinewe'
p4315
(lp4316
I1
aF4.0
asS'mark'
p4317
(lp4318
I3
aF13.5
asS'n sour'
p4319
(lp4320
I1
aF4.5
asS'bengaluru'
p4321
(lp4322
I1
aF4.5
asS'treat'
p4323
(lp4324
I2
aF10.0
asS'ringer'
p4325
(lp4326
I1
aF4.0
asS'basil'
p4327
(lp4328
I2
aF8.0
asS'mary'
p4329
(lp4330
I3
aF12.0
asS'mind'
p4331
(lp4332
I7
aF27.5
asS'photos'
p4333
(lp4334
I2
aF8.0
asS'chili'
p4335
(lp4336
I1
aF4.5
asS'restaurant'
p4337
(lp4338
I11
aF48.0
asS'while'
p4339
(lp4340
I2
aF8.0
asS'mandarin feast'
p4341
(lp4342
I4
aF17.0
asS'balance'
p4343
(lp4344
I1
aF4.0
asS'theres'
p4345
(lp4346
I3
aF13.0
asS'tree stood'
p4347
(lp4348
I2
aF8.0
asS'peanut sauce'
p4349
(lp4350
I6
aF25.5
asS'dumplings'
p4351
(lp4352
I1
aF4.0
asS'bamee noodles'
p4353
(lp4354
I1
aF4.5
asS'middle'
p4355
(lp4356
I1
aF3.5
asS'decor'
p4357
(lp4358
I6
aF24.0
asS'things'
p4359
(lp4360
I2
aF9.0
asS'thai basil'
p4361
(lp4362
I4
aF16.5
asS'basil fish'
p4363
(lp4364
I3
aF12.5
asS'drink'
p4365
(lp4366
I6
aF23.5
asS'mind towards'
p4367
(lp4368
I6
aF23.5
asS'waterfall'
p4369
(lp4370
I2
aF8.0
asS'cucumber'
p4371
(lp4372
I4
aF16.5
asS'favorites'
p4373
(lp4374
I1
aF4.0
asS'honey chilli'
p4375
(lp4376
I2
aF8.0
asS'caption'
p4377
(lp4378
I2
aF8.0
asS'cuisine.please'
p4379
(lp4380
I6
aF23.5
asS'center'
p4381
(lp4382
I2
aF8.0
asS'chillier side'
p4383
(lp4384
I6
aF23.5
asS'indonesia'
p4385
(lp4386
I1
aF4.5
asS'spicy soya dimsums'
p4387
(lp4388
I1
aF4.5
asS'dim sim'
p4389
(lp4390
I1
aF4.0
asS'spicy taste'
p4391
(lp4392
I1
aF4.5
asS'outdoor'
p4393
(lp4394
I6
aF23.5
asS'cuisines'
p4395
(lp4396
I1
aF4.0
asS'rest'
p4397
(lp4398
I3
aF13.0
asS'prawn dimsums'
p4399
(lp4400
I3
aF12.5
asS'sober shades'
p4401
(lp4402
I2
aF8.0
asS'sunday lunch'
p4403
(lp4404
I2
aF8.0
asS'hint'
p4405
(lp4406
I2
aF8.0
asS'thai soup'
p4407
(lp4408
I4
aF16.5
asS'improvement'
p4409
(lp4410
I3
aF13.0
asS'spread'
p4411
(lp4412
I1
aF3.5
asS'restaurant management'
p4413
(lp4414
I3
aF12.5
asS'struck'
p4415
(lp4416
I2
aF8.0
asS'delhi'
p4417
(lp4418
I1
aF4.5
asS'world'
p4419
(lp4420
I8
aF33.5
asS'tim tia'
p4421
(lp4422
I3
aF12.5
asS'night'
p4423
(lp4424
I4
aF16.5
asS'setups'
p4425
(lp4426
I6
aF23.5
asS'tree inside'
p4427
(lp4428
I4
aF16.5
asS'lemon grass'
p4429
(lp4430
I4
aF17.0
asS'seating'
p4431
(lp4432
I1
aF4.0
asS'people'
p4433
(lp4434
I5
aF20.5
asS'somehow'
p4435
(lp4436
I1
aF3.5
asS'shanghai noodles'
p4437
(lp4438
I1
aF4.0
asS'sunday afternoon'
p4439
(lp4440
I1
aF4.5
asS'interiors.the interior'
p4441
(lp4442
I6
aF23.5
asS'duck rolls'
p4443
(lp4444
I4
aF16.5
asS'satay platter'
p4445
(lp4446
I2
aF9.0
asS'memories'
p4447
(lp4448
I1
aF4.5
asS'comments'
p4449
(lp4450
I2
aF8.0
asS'everything'
p4451
(lp4452
I1
aF4.5
asS'tai doesnt disappoint'
p4453
(lp4454
I1
aF4.0
asS'stem'
p4455
(lp4456
I2
aF8.0
asS'spinach gau dimsums werent'
p4457
(lp4458
I3
aF13.0
asS'raspberry'
p4459
(lp4460
I3
aF12.5
asS'anything'
p4461
(lp4462
I3
aF13.0
asS'dining experience total'
p4463
(lp4464
I3
aF12.5
asS'tuesday evening'
p4465
(lp4466
I2
aF9.0
asS'mushroom satay'
p4467
(lp4468
I1
aF4.0
asS'side'
p4469
(lp4470
I3
aF13.0
asS'blueberry compote didnt help'
p4471
(lp4472
I1
aF3.5
asS'dinner'
p4473
(lp4474
I2
aF9.0
asS'afternoon'
p4475
(lp4476
I1
aF4.5
asS'curry'
p4477
(lp4478
I10
aF39.5
asS'block'
p4479
(lp4480
I6
aF23.5
asS'lotus stem'
p4481
(lp4482
I2
aF8.5
asS'plethora'
p4483
(lp4484
I3
aF11.5
asS'fritters'
p4485
(lp4486
I1
aF3.5
asS'stimulating grandeur'
p4487
(lp4488
I6
aF23.5
asS'shoots'
p4489
(lp4490
I1
aF4.5
asS'family restaurant'
p4491
(lp4492
I1
aF3.5
asS'rolls'
p4493
(lp4494
I1
aF4.0
asS'weeknight'
p4495
(lp4496
I2
aF8.0
asS'area'
p4497
(lp4498
I4
aF17.0
asS'vegetables'
p4499
(lp4500
I5
aF20.5
asS'question'
p4501
(lp4502
I1
aF4.5
asS'pepper sauce'
p4503
(lp4504
I2
aF8.0
asS'mood.they'
p4505
(lp4506
I6
aF23.5
asS'notices'
p4507
(lp4508
I1
aF4.5
asS'thai..hakka noodles'
p4509
(lp4510
I1
aF4.0
asS'spicy'
p4511
(lp4512
I5
aF21.0
asS'ambiance'
p4513
(lp4514
I3
aF13.0
asS'preparations'
p4515
(lp4516
I1
aF4.0
asS'catalyst'
p4517
(lp4518
I2
aF8.0
asS'rahul dsouza'
p4519
(lp4520
I1
aF4.0
asS'flavour'
p4521
(lp4522
I5
aF21.5
asS'places'
p4523
(lp4524
I3
aF13.0
asS'interiors'
p4525
(lp4526
I1
aF4.0
asS'grass'
p4527
(lp4528
I2
aF10.0
asS'adults'
p4529
(lp4530
I1
aF4.5
asS'taste'
p4531
(lp4532
I10
aF41.5
asS'penny'
p4533
(lp4534
I3
aF13.0
asS'food street'
p4535
(lp4536
I1
aF4.0
asS'deep'
p4537
(lp4538
I1
aF3.5
asS'staff handle'
p4539
(lp4540
I1
aF4.0
asS'koramangala'
p4541
(lp4542
I3
aF12.5
asS'shanghai chicken dimsum'
p4543
(lp4544
I1
aF3.5
asS'sometime'
p4545
(lp4546
I1
aF4.5
asS'crabmeat omelet'
p4547
(lp4548
I1
aF3.5
asS'cafe'
p4549
(lp4550
I6
aF23.5
asS'floor'
p4551
(lp4552
I3
aF12.5
asS'thanks'
p4553
(lp4554
I3
aF13.0
asS'soya dumplings'
p4555
(lp4556
I1
aF4.0
asS'coconut taste taste'
p4557
(lp4558
I6
aF23.5
asS'star'
p4559
(lp4560
I6
aF25.5
asS'south east asian cuisine'
p4561
(lp4562
I1
aF4.5
asS'crunchy peanuts'
p4563
(lp4564
I2
aF10.0
asS'reservation'
p4565
(lp4566
I1
aF4.0
asS'friends'
p4567
(lp4568
I4
aF15.5
asS'desert'
p4569
(lp4570
I1
aF4.0
asS'tims'
p4571
(lp4572
I6
aF23.5
asS'salt'
p4573
(lp4574
I1
aF3.5
asS'juicy succelent'
p4575
(lp4576
I2
aF10.0
asS'beverage'
p4577
(lp4578
I2
aF9.0
asS'time'
p4579
(lp4580
I5
aF21.0
asS'nasi'
p4581
(lp4582
I2
aF9.0
assS'58576'
p4583
(dp4584
S'aaram se'
p4585
(lp4586
I1
aF5.0
asS'melts'
p4587
(lp4588
I1
aF4.5
asS'hats'
p4589
(lp4590
I1
aF4.5
asS'fast service'
p4591
(lp4592
I1
aF4.5
asS'dish'
p4593
(lp4594
I2
aF9.5
asS'vada n'
p4595
(lp4596
I1
aF4.5
asS'indian delicacy'
p4597
(lp4598
I1
aF5.0
asS'less.i ate'
p4599
(lp4600
I1
aF4.5
asS'thursday'
p4601
(lp4602
I1
aF4.5
asS'bests'
p4603
(lp4604
I1
aF5.0
asS'work frm u guys'
p4605
(lp4606
I1
aF4.5
asS'worth'
p4607
(lp4608
I1
aF4.5
asS'town'
p4609
(lp4610
I2
aF9.5
asS'icing'
p4611
(lp4612
I1
aF4.5
asS'advantage'
p4613
(lp4614
I1
aF4.5
asS'please ignore'
p4615
(lp4616
I1
aF4.5
asS'choice'
p4617
(lp4618
I2
aF9.0
asS'ssmrv'
p4619
(lp4620
I1
aF5.0
asS'end kesari bath ftw'
p4621
(lp4622
I1
aF4.5
asS'sonu'
p4623
(lp4624
I1
aF5.0
asS'mesmerizing'
p4625
(lp4626
I1
aF4.5
asS'level'
p4627
(lp4628
I4
aF17.5
asS'list'
p4629
(lp4630
I1
aF4.5
asS'standards'
p4631
(lp4632
I1
aF4.5
asS'item'
p4633
(lp4634
I3
aF14.0
asS'waiting.hats'
p4635
(lp4636
I1
aF4.5
asS'cholesterol'
p4637
(lp4638
I1
aF4.5
asS'quick'
p4639
(lp4640
I1
aF4.5
asS'verandas'
p4641
(lp4642
I1
aF4.5
asS'enjoy'
p4643
(lp4644
I2
aF9.0
asS'revolution'
p4645
(lp4646
I1
aF4.5
asS'neighborhood'
p4647
(lp4648
I1
aF4.5
asS'street side idli-dosa stall-'
p4649
(lp4650
I1
aF4.5
asS'streets'
p4651
(lp4652
I1
aF4.5
asS'budget'
p4653
(lp4654
I1
aF4.5
asS'pm .its'
p4655
(lp4656
I1
aF5.0
asS'guy inside'
p4657
(lp4658
I1
aF5.0
asS'rate'
p4659
(lp4660
I2
aF9.0
asS'cost'
p4661
(lp4662
I1
aF4.5
asS'expense'
p4663
(lp4664
I1
aF4.5
asS'saturday morning'
p4665
(lp4666
I2
aF9.0
asS'wan na see'
p4667
(lp4668
I1
aF4.5
asS'cleanliness'
p4669
(lp4670
I3
aF14.0
asS'counters'
p4671
(lp4672
I2
aF9.5
asS'coffee cost'
p4673
(lp4674
I1
aF5.0
asS'idli- vada'
p4675
(lp4676
I1
aF5.0
asS'darahinis'
p4677
(lp4678
I1
aF5.0
asS'hundreds'
p4679
(lp4680
I1
aF4.5
asS'yummy'
p4681
(lp4682
I1
aF4.5
asS'masala dosa yumm'
p4683
(lp4684
I1
aF5.0
asS'wait'
p4685
(lp4686
I1
aF4.5
asS'entire menu'
p4687
(lp4688
I1
aF5.0
asS'spite'
p4689
(lp4690
I1
aF5.0
asS'items'
p4691
(lp4692
I5
aF22.0
asS'experience'
p4693
(lp4694
I5
aF23.5
asS'queue'
p4695
(lp4696
I5
aF22.5
asS'amount'
p4697
(lp4698
I1
aF4.5
asS'wait probably.the food'
p4699
(lp4700
I1
aF4.5
asS'thats'
p4701
(lp4702
I3
aF13.5
asS'weekend morning'
p4703
(lp4704
I1
aF4.5
asS'wish list'
p4705
(lp4706
I1
aF4.5
asS'manage'
p4707
(lp4708
I2
aF9.0
asS'patience'
p4709
(lp4710
I3
aF13.0
asS'\xf0\x9f\x99\x82'
p4711
(lp4712
I1
aF4.5
asS'standing'
p4713
(lp4714
I2
aF9.5
asS'hot filter coffee'
p4715
(lp4716
I1
aF5.0
asS'indians'
p4717
(lp4718
I1
aF4.5
asS'visit'
p4719
(lp4720
I2
aF9.5
asS'quanity'
p4721
(lp4722
I1
aF4.5
asS'call'
p4723
(lp4724
I1
aF4.5
asS'recommend'
p4725
(lp4726
I2
aF9.0
asS'today'
p4727
(lp4728
I1
aF4.5
asS'upma'
p4729
(lp4730
I1
aF5.0
asS'lemony flavour'
p4731
(lp4732
I1
aF4.5
asS'south indian meal'
p4733
(lp4734
I1
aF5.0
asS'award'
p4735
(lp4736
I1
aF4.0
asS'aware'
p4737
(lp4738
I1
aF4.5
asS'warn'
p4739
(lp4740
I1
aF4.5
asS'ambience'
p4741
(lp4742
I2
aF9.0
asS'excellent'
p4743
(lp4744
I1
aF4.5
asS'known'
p4745
(lp4746
I1
aF5.0
asS'bangalore breakfast place'
p4747
(lp4748
I1
aF4.5
asS'medium fries'
p4749
(lp4750
I1
aF4.5
asS'word'
p4751
(lp4752
I1
aF4.5
asS'coffee/tea'
p4753
(lp4754
I1
aF4.5
asS'reviews'
p4755
(lp4756
I1
aF5.0
asS'wallet'
p4757
(lp4758
I1
aF4.5
asS'disinfection'
p4759
(lp4760
I1
aF5.0
asS'foodie'
p4761
(lp4762
I1
aF4.5
asS'snacks'
p4763
(lp4764
I1
aF4.5
asS'process'
p4765
(lp4766
I2
aF9.5
asS'awesome'
p4767
(lp4768
I1
aF4.5
asS'less.one'
p4769
(lp4770
I1
aF4.5
asS'something'
p4771
(lp4772
I2
aF8.5
asS'sense'
p4773
(lp4774
I1
aF4.5
asS'decent hotel'
p4775
(lp4776
I1
aF4.5
asS'favorite tangy lemony chutney'
p4777
(lp4778
I1
aF4.0
asS'place apart'
p4779
(lp4780
I1
aF4.5
asS'keen'
p4781
(lp4782
I1
aF4.5
asS'pure'
p4783
(lp4784
I1
aF4.5
asS'perfect filter coffee'
p4785
(lp4786
I1
aF4.5
asS'khara bath'
p4787
(lp4788
I1
aF4.5
asS'way better'
p4789
(lp4790
I1
aF4.5
asS'ur grey cells'
p4791
(lp4792
I1
aF5.0
asS'payment counter'
p4793
(lp4794
I1
aF5.0
asS'food2'
p4795
(lp4796
I1
aF4.5
asS'minimalist ambience'
p4797
(lp4798
I1
aF4.5
asS'jayanagar outlet'
p4799
(lp4800
I1
aF4.0
asS'-this'
p4801
(lp4802
I1
aF4.5
asS'end material'
p4803
(lp4804
I1
aF4.5
asS'branches'
p4805
(lp4806
I1
aF4.5
asS'liquid'
p4807
(lp4808
I1
aF5.0
asS'counter'
p4809
(lp4810
I1
aF5.0
asS'please dont worry'
p4811
(lp4812
I1
aF4.5
asS'queue system'
p4813
(lp4814
I1
aF5.0
asS'order'
p4815
(lp4816
I4
aF18.5
asS'perfection'
p4817
(lp4818
I2
aF9.5
asS'serving'
p4819
(lp4820
I1
aF4.5
asS'help'
p4821
(lp4822
I1
aF5.0
asS'office'
p4823
(lp4824
I1
aF4.5
asS'move'
p4825
(lp4826
I1
aF5.0
asS'brain'
p4827
(lp4828
I1
aF5.0
asS'isnt'
p4829
(lp4830
I2
aF9.0
asS'ten times'
p4831
(lp4832
I1
aF4.5
asS'peopleopt'
p4833
(lp4834
I1
aF4.5
asS'food quicker'
p4835
(lp4836
I1
aF5.0
asS'south indian eatouts'
p4837
(lp4838
I1
aF5.0
asS'place doesnt match'
p4839
(lp4840
I1
aF4.5
asS'cuisine masala dosa'
p4841
(lp4842
I1
aF4.5
asS'receptacles'
p4843
(lp4844
I1
aF4.5
asS'crowds'
p4845
(lp4846
I1
aF4.5
asS'coffee'
p4847
(lp4848
I6
aF28.0
asS'evening'
p4849
(lp4850
I2
aF8.5
asS'tasty food'
p4851
(lp4852
I2
aF9.0
asS'combination'
p4853
(lp4854
I1
aF4.5
asS'food'
p4855
(lp4856
I8
aF36.5
asS'processes'
p4857
(lp4858
I1
aF4.5
asS'chutney counter'
p4859
(lp4860
I1
aF4.5
asS'inception'
p4861
(lp4862
I1
aF4.5
asS'sambhar lovers'
p4863
(lp4864
I1
aF5.0
asS'me- food'
p4865
(lp4866
I1
aF4.5
asS'kesari bath'
p4867
(lp4868
I3
aF14.0
asS'queues'
p4869
(lp4870
I2
aF9.5
asS'idly-wada'
p4871
(lp4872
I1
aF4.5
asS'star dish'
p4873
(lp4874
I1
aF4.5
asS'seating area'
p4875
(lp4876
I1
aF4.5
asS'meal'
p4877
(lp4878
I2
aF9.5
asS'extra butter'
p4879
(lp4880
I1
aF4.5
asS'everyone'
p4881
(lp4882
I2
aF9.0
asS'weekend queue'
p4883
(lp4884
I1
aF5.0
asS'ambiance'
p4885
(lp4886
I2
aF9.0
asS'yeah'
p4887
(lp4888
I1
aF4.5
asS'vada'
p4889
(lp4890
I7
aF32.0
asS'space'
p4891
(lp4892
I3
aF13.5
asS'restaurant.the menu'
p4893
(lp4894
I1
aF4.5
asS'looking'
p4895
(lp4896
I1
aF4.5
asS'encourage'
p4897
(lp4898
I1
aF4.5
asS'food lovers.ambience'
p4899
(lp4900
I1
aF4.5
asS'spot'
p4901
(lp4902
I1
aF4.5
asS'kharabath duet'
p4903
(lp4904
I1
aF5.0
asS'malleshwaram'
p4905
(lp4906
I2
aF9.0
asS'reason'
p4907
(lp4908
I1
aF4.5
asS'care'
p4909
(lp4910
I1
aF4.5
asS'myt thing'
p4911
(lp4912
I1
aF5.0
asS'raghavendra stores'
p4913
(lp4914
I1
aF4.5
asS'times'
p4915
(lp4916
I2
aF9.0
asS'filter'
p4917
(lp4918
I1
aF5.0
asS'thing'
p4919
(lp4920
I3
aF14.0
asS'place'
p4921
(lp4922
I6
aF27.5
asS'excess ghee'
p4923
(lp4924
I1
aF4.5
asS'hence'
p4925
(lp4926
I1
aF5.0
asS'dont'
p4927
(lp4928
I1
aF4.5
asS'weekdays'
p4929
(lp4930
I1
aF4.5
asS'quicker'
p4931
(lp4932
I1
aF4.5
asS'shakes'
p4933
(lp4934
I1
aF5.0
asS'food wont take'
p4935
(lp4936
I1
aF4.0
asS'thick'
p4937
(lp4938
I1
aF4.5
asS'cups'
p4939
(lp4940
I1
aF4.5
asS'quality'
p4941
(lp4942
I6
aF28.0
asS'brownie points'
p4943
(lp4944
I1
aF4.5
asS'guess'
p4945
(lp4946
I1
aF5.0
asS'management'
p4947
(lp4948
I1
aF4.5
asS'dosa cravings'
p4949
(lp4950
I1
aF4.5
asS'service'
p4951
(lp4952
I4
aF18.5
asS'dosa counters'
p4953
(lp4954
I1
aF4.0
asS'system'
p4955
(lp4956
I1
aF5.0
asS'establishments'
p4957
(lp4958
I1
aF4.5
asS'name'
p4959
(lp4960
I1
aF4.5
asS'anyone'
p4961
(lp4962
I2
aF9.0
asS'veena stores'
p4963
(lp4964
I3
aF14.0
asS'compromise'
p4965
(lp4966
I1
aF4.5
asS'saturday morning stroll'
p4967
(lp4968
I1
aF4.5
asS'masala'
p4969
(lp4970
I1
aF4.5
asS'ranging'
p4971
(lp4972
I1
aF4.5
asS'friend'
p4973
(lp4974
I1
aF4.5
asS'attendants'
p4975
(lp4976
I1
aF4.5
asS'amazing place'
p4977
(lp4978
I1
aF5.0
asS'stomach'
p4979
(lp4980
I2
aF9.5
asS'hotel'
p4981
(lp4982
I2
aF9.0
asS'tokens'
p4983
(lp4984
I1
aF4.5
asS'idli-vada'
p4985
(lp4986
I1
aF4.5
asS'\xf0\x9f\x98\x89'
p4987
(lp4988
I1
aF4.5
asS'part'
p4989
(lp4990
I2
aF9.5
asS'bother'
p4991
(lp4992
I1
aF4.5
asS'rarity'
p4993
(lp4994
I1
aF5.0
asS'matter'
p4995
(lp4996
I2
aF9.0
asS'idle'
p4997
(lp4998
I1
aF4.5
asS'food joints hence'
p4999
(lp5000
I1
aF4.5
asS'idli'
p5001
(lp5002
I5
aF23.5
asS'thing m gon na'
p5003
(lp5004
I1
aF4.5
asS'tidy'
p5005
(lp5006
I1
aF4.5
asS'waiting time'
p5007
(lp5008
I1
aF5.0
asS'need'
p5009
(lp5010
I1
aF5.0
asS'breakfast'
p5011
(lp5012
I4
aF17.5
asS'mins'
p5013
(lp5014
I2
aF9.0
asS'ratings'
p5015
(lp5016
I1
aF5.0
asS'filter coffee'
p5017
(lp5018
I2
aF9.5
asS'dishes'
p5019
(lp5020
I2
aF8.5
asS'sevice'
p5021
(lp5022
I1
aF4.5
asS'u get'
p5023
(lp5024
I1
aF4.0
asS'equipment'
p5025
(lp5026
I1
aF5.0
asS'shocker'
p5027
(lp5028
I1
aF4.5
asS'wanting'
p5029
(lp5030
I1
aF5.0
asS'perfection..'
p5031
(lp5032
I1
aF4.5
asS'piping hot cup'
p5033
(lp5034
I1
aF4.5
asS'super tasty'
p5035
(lp5036
I1
aF4.5
asS'simple things'
p5037
(lp5038
I1
aF4.5
asS'restaurant wouldnt'
p5039
(lp5040
I1
aF4.5
asS'price'
p5041
(lp5042
I5
aF22.5
asS'consistency'
p5043
(lp5044
I1
aF4.5
asS'steaming hot coffee'
p5045
(lp5046
I1
aF4.5
asS'mouth'
p5047
(lp5048
I3
aF14.0
asS'nothing'
p5049
(lp5050
I2
aF9.0
asS'roadside doesnt'
p5051
(lp5052
I1
aF4.5
asS'south indian breakfast'
p5053
(lp5054
I1
aF4.5
asS'reputation'
p5055
(lp5056
I1
aF4.5
asS'customers form'
p5057
(lp5058
I1
aF4.5
asS'rupees'
p5059
(lp5060
I2
aF9.5
asS'fact'
p5061
(lp5062
I2
aF9.0
asS'quantity'
p5063
(lp5064
I3
aF14.0
asS'rating'
p5065
(lp5066
I3
aF14.0
asS'visitor'
p5067
(lp5068
I1
aF5.0
asS'cheap'
p5069
(lp5070
I3
aF14.5
asS'chutney blends'
p5071
(lp5072
I1
aF4.5
asS'find'
p5073
(lp5074
I1
aF5.0
asS'staff'
p5075
(lp5076
I4
aF19.0
asS'zomatos'
p5077
(lp5078
I1
aF4.5
asS'hotel industry'
p5079
(lp5080
I1
aF4.5
asS'perfect place'
p5081
(lp5082
I1
aF4.5
asS'justice'
p5083
(lp5084
I1
aF5.0
asS'menu'
p5085
(lp5086
I7
aF32.0
asS'weekends'
p5087
(lp5088
I2
aF9.0
asS'20minutes'
p5089
(lp5090
I1
aF5.0
asS'folks'
p5091
(lp5092
I1
aF5.0
asS'piping hot south indian staples.eager'
p5093
(lp5094
I1
aF4.5
asS'good.the crowd'
p5095
(lp5096
I1
aF5.0
asS'process hassle'
p5097
(lp5098
I1
aF4.5
asS'chow chow bath'
p5099
(lp5100
I3
aF13.5
asS'tastewise'
p5101
(lp5102
I1
aF5.0
asS'expectation'
p5103
(lp5104
I1
aF4.5
asS'pocket'
p5105
(lp5106
I1
aF4.5
asS'perfect place..'
p5107
(lp5108
I1
aF4.5
asS'ones'
p5109
(lp5110
I1
aF4.5
asS'batter'
p5111
(lp5112
I1
aF5.0
asS'jobless people'
p5113
(lp5114
I2
aF8.5
asS'tuppa'
p5115
(lp5116
I1
aF4.5
asS'chutney'
p5117
(lp5118
I7
aF32.5
asS'areas'
p5119
(lp5120
I1
aF4.5
asS'runs'
p5121
(lp5122
I1
aF4.5
asS'well..'
p5123
(lp5124
I1
aF4.5
asS'morning'
p5125
(lp5126
I1
aF4.5
asS'wish'
p5127
(lp5128
I1
aF4.5
asS'hype'
p5129
(lp5130
I2
aF9.5
asS'mad house'
p5131
(lp5132
I1
aF4.5
asS'proper sterilizer'
p5133
(lp5134
I1
aF5.0
asS'restaurants'
p5135
(lp5136
I1
aF4.5
asS'fluffy'
p5137
(lp5138
I2
aF9.0
asS'fill tummy'
p5139
(lp5140
I1
aF4.0
asS'tasty breakfast'
p5141
(lp5142
I1
aF5.0
asS'idlis'
p5143
(lp5144
I4
aF18.0
asS'locals'
p5145
(lp5146
I1
aF4.5
asS'wonder'
p5147
(lp5148
I1
aF5.0
asS'again.. coffee'
p5149
(lp5150
I1
aF4.5
asS'pictures'
p5151
(lp5152
I1
aF4.5
asS'review'
p5153
(lp5154
I1
aF4.5
asS'spoons'
p5155
(lp5156
I1
aF4.5
asS'finger'
p5157
(lp5158
I1
aF5.0
asS'monday morning'
p5159
(lp5160
I1
aF5.0
asS'importance'
p5161
(lp5162
I2
aF9.0
asS'customer service'
p5163
(lp5164
I1
aF4.5
asS'item- inr'
p5165
(lp5166
I1
aF4.5
asS'food doesnt need'
p5167
(lp5168
I1
aF5.0
asS'parcel food'
p5169
(lp5170
I1
aF5.0
asS'coupons'
p5171
(lp5172
I1
aF5.0
asS'restaurant'
p5173
(lp5174
I5
aF22.5
asS'palya'
p5175
(lp5176
I1
aF4.5
asS'badam milk'
p5177
(lp5178
I1
aF4.5
asS'plate idli vada'
p5179
(lp5180
I1
aF5.0
asS'yummy homestyle chutney'
p5181
(lp5182
I1
aF4.5
asS'wala'
p5183
(lp5184
I1
aF5.0
asS'point'
p5185
(lp5186
I2
aF9.0
asS'reasons'
p5187
(lp5188
I1
aF4.5
asS'hygiene'
p5189
(lp5190
I4
aF18.5
asS'likes'
p5191
(lp5192
I1
aF4.5
asS'respect'
p5193
(lp5194
I1
aF5.0
asS'breakfast experience'
p5195
(lp5196
I1
aF4.5
asS'ensures'
p5197
(lp5198
I1
aF4.5
asS'basis'
p5199
(lp5200
I1
aF4.5
asS'plain dose'
p5201
(lp5202
I1
aF5.0
asS'south indian breakfast food'
p5203
(lp5204
I1
aF5.0
asS'mark'
p5205
(lp5206
I1
aF4.5
asS'bengaluru'
p5207
(lp5208
I1
aF4.5
asS'maintenance'
p5209
(lp5210
I2
aF9.0
asS'standing road side'
p5211
(lp5212
I1
aF4.5
asS'min approx'
p5213
(lp5214
I1
aF5.0
asS'mind'
p5215
(lp5216
I3
aF13.5
asS'bulk'
p5217
(lp5218
I1
aF4.5
asS'eatery'
p5219
(lp5220
I1
aF4.5
asS'demand'
p5221
(lp5222
I1
aF5.0
asS'prices'
p5223
(lp5224
I4
aF19.0
asS'masala dosa'
p5225
(lp5226
I6
aF28.0
asS'masala dose'
p5227
(lp5228
I1
aF5.0
asS'sri guru kotteshwara benne dosa'
p5229
(lp5230
I1
aF4.5
asS'kharabath'
p5231
(lp5232
I3
aF14.5
asS'spoon'
p5233
(lp5234
I1
aF4.5
asS'cash'
p5235
(lp5236
I1
aF4.5
asS'value'
p5237
(lp5238
I2
aF9.0
asS'choices'
p5239
(lp5240
I1
aF4.5
asS'will'
p5241
(lp5242
I1
aF5.0
asS'zomato'
p5243
(lp5244
I3
aF14.0
asS'breakfast hub'
p5245
(lp5246
I1
aF4.0
asS'theres'
p5247
(lp5248
I1
aF4.5
asS'-taaza'
p5249
(lp5250
I1
aF4.5
asS'moth'
p5251
(lp5252
I1
aF5.0
asS'jayanagar'
p5253
(lp5254
I2
aF9.5
asS'bucks'
p5255
(lp5256
I6
aF27.5
asS'bags'
p5257
(lp5258
I1
aF4.5
asS'dosas'
p5259
(lp5260
I3
aF13.5
asS'things'
p5261
(lp5262
I1
aF5.0
asS'family crowd'
p5263
(lp5264
I1
aF5.0
asS'drawback'
p5265
(lp5266
I1
aF5.0
asS'super pocket'
p5267
(lp5268
I1
aF4.0
asS'inch'
p5269
(lp5270
I1
aF4.5
asS'week'
p5271
(lp5272
I1
aF4.5
asS'morning time'
p5273
(lp5274
I1
aF4.0
asS'holidays'
p5275
(lp5276
I1
aF4.5
asS'horde'
p5277
(lp5278
I1
aF4.5
asS'cleaning'
p5279
(lp5280
I1
aF5.0
asS'p -this place'
p5281
(lp5282
I1
aF4.5
asS'cycle'
p5283
(lp5284
I1
aF5.0
asS'butter'
p5285
(lp5286
I1
aF4.5
asS'staple place.i'
p5287
(lp5288
I1
aF4.5
asS'dosa rate'
p5289
(lp5290
I1
aF4.5
asS'mention'
p5291
(lp5292
I2
aF9.5
asS'person'
p5293
(lp5294
I1
aF4.5
asS'costs'
p5295
(lp5296
I2
aF9.0
asS'sets'
p5297
(lp5298
I1
aF4.5
asS'taaza thindi'
p5299
(lp5300
I3
aF13.5
asS'chord'
p5301
(lp5302
I1
aF4.5
asS'stores'
p5303
(lp5304
I1
aF4.5
asS'anything..'
p5305
(lp5306
I1
aF4.5
asS'money'
p5307
(lp5308
I4
aF19.0
asS'dosa'
p5309
(lp5310
I6
aF28.0
asS'rest'
p5311
(lp5312
I1
aF5.0
asS'dose'
p5313
(lp5314
I1
aF5.0
asS'idli-vada combo'
p5315
(lp5316
I1
aF4.5
asS'hotel janta'
p5317
(lp5318
I1
aF4.5
asS'vadas'
p5319
(lp5320
I3
aF14.0
asS'speed'
p5321
(lp5322
I1
aF4.5
asS'south indian delicacy'
p5323
(lp5324
I1
aF5.0
asS'supply'
p5325
(lp5326
I1
aF5.0
asS'simple'
p5327
(lp5328
I1
aF5.0
asS'tea/bournvita'
p5329
(lp5330
I1
aF4.0
asS'ghee'
p5331
(lp5332
I1
aF4.5
asS'customers'
p5333
(lp5334
I1
aF4.5
asS'aspects'
p5335
(lp5336
I1
aF5.0
asS'traffic'
p5337
(lp5338
I1
aF4.5
asS'eat tasty masala dosa'
p5339
(lp5340
I1
aF4.5
asS'apart'
p5341
(lp5342
I1
aF4.5
asS'loss'
p5343
(lp5344
I1
aF5.0
asS'crisp'
p5345
(lp5346
I2
aF9.5
asS'team work..'
p5347
(lp5348
I1
aF4.5
asS'wonders'
p5349
(lp5350
I1
aF5.0
asS'tasty.idli'
p5351
(lp5352
I1
aF4.5
asS'seating'
p5353
(lp5354
I2
aF9.0
asS'spoons.the place'
p5355
(lp5356
I1
aF5.0
asS'crowd'
p5357
(lp5358
I8
aF36.5
asS'people'
p5359
(lp5360
I6
aF27.5
asS'competition'
p5361
(lp5362
I1
aF4.5
asS'platforms'
p5363
(lp5364
I1
aF4.5
asS'pricing'
p5365
(lp5366
I2
aF9.5
asS'home'
p5367
(lp5368
I1
aF4.5
asS'amazing breakfast place hidden'
p5369
(lp5370
I1
aF4.5
asS'table chair'
p5371
(lp5372
I1
aF4.5
asS'scale'
p5373
(lp5374
I1
aF4.5
asS'everything'
p5375
(lp5376
I4
aF19.0
asS'innovation'
p5377
(lp5378
I1
aF4.5
asS'beating'
p5379
(lp5380
I1
aF4.5
asS'temple'
p5381
(lp5382
I1
aF4.5
asS'blowing'
p5383
(lp5384
I1
aF5.0
asS'role model'
p5385
(lp5386
I1
aF4.5
asS'infra'
p5387
(lp5388
I1
aF5.0
asS'bangalore'
p5389
(lp5390
I4
aF18.0
asS'super'
p5391
(lp5392
I2
aF9.5
asS'benches'
p5393
(lp5394
I1
aF4.5
asS'side'
p5395
(lp5396
I1
aF4.5
asS'delicacies'
p5397
(lp5398
I1
aF5.0
asS'plus'
p5399
(lp5400
I1
aF4.5
asS'darshini'
p5401
(lp5402
I1
aF4.5
asS'masala dose.it'
p5403
(lp5404
I1
aF4.5
asS'road'
p5405
(lp5406
I1
aF4.5
asS'watering'
p5407
(lp5408
I1
aF5.0
asS'coupon'
p5409
(lp5410
I1
aF5.0
asS'youd'
p5411
(lp5412
I1
aF4.5
asS'bath'
p5413
(lp5414
I3
aF14.0
asS'weather'
p5415
(lp5416
I1
aF4.5
asS'idli vada'
p5417
(lp5418
I2
aF9.5
asS'deal'
p5419
(lp5420
I1
aF4.5
asS'support'
p5421
(lp5422
I1
aF4.5
asS'place doesnt'
p5423
(lp5424
I1
aF5.0
asS'fight'
p5425
(lp5426
I2
aF9.5
asS'start'
p5427
(lp5428
I1
aF4.5
asS'star restaurant'
p5429
(lp5430
I1
aF5.0
asS'no-frills'
p5431
(lp5432
I1
aF4.5
asS'strikes'
p5433
(lp5434
I1
aF4.5
asS'idea'
p5435
(lp5436
I1
aF4.5
asS'delivery'
p5437
(lp5438
I1
aF4.5
asS'per unit'
p5439
(lp5440
I1
aF5.0
asS'line'
p5441
(lp5442
I2
aF9.5
asS'rush'
p5443
(lp5444
I1
aF4.5
asS'places'
p5445
(lp5446
I3
aF14.0
asS'ill catch'
p5447
(lp5448
I1
aF5.0
asS'south indian food'
p5449
(lp5450
I2
aF9.0
asS'maximum'
p5451
(lp5452
I1
aF4.5
asS'patience pays'
p5453
(lp5454
I1
aF4.5
asS'cake'
p5455
(lp5456
I1
aF4.5
asS'problem'
p5457
(lp5458
I1
aF4.5
asS'minutes'
p5459
(lp5460
I2
aF9.0
asS'upload here.i'
p5461
(lp5462
I1
aF4.5
asS'sambar'
p5463
(lp5464
I2
aF9.0
asS'taste'
p5465
(lp5466
I5
aF23.0
asS'life'
p5467
(lp5468
I2
aF9.5
asS'twist'
p5469
(lp5470
I1
aF4.5
asS'breakfast places'
p5471
(lp5472
I1
aF4.5
asS') idlyvadahave'
p5473
(lp5474
I1
aF4.5
asS'tasty'
p5475
(lp5476
I2
aF9.5
asS'-one'
p5477
(lp5478
I1
aF5.0
asS'dying'
p5479
(lp5480
I1
aF4.5
asS'points'
p5481
(lp5482
I1
aF4.5
asS'takeaway option'
p5483
(lp5484
I1
aF4.5
asS'happens'
p5485
(lp5486
I1
aF4.5
asS'draw'
p5487
(lp5488
I1
aF4.5
asS'plate'
p5489
(lp5490
I2
aF9.0
asS'favourite'
p5491
(lp5492
I1
aF4.5
asS'felt'
p5493
(lp5494
I1
aF4.5
asS'kesaribath'
p5495
(lp5496
I1
aF4.5
asS'friends'
p5497
(lp5498
I2
aF9.5
asS'super experience'
p5499
(lp5500
I1
aF5.0
asS'standing space'
p5501
(lp5502
I1
aF5.0
asS'business strategy'
p5503
(lp5504
I1
aF4.5
asS'sambhar'
p5505
(lp5506
I4
aF18.5
asS'mass'
p5507
(lp5508
I1
aF4.5
asS'volumes'
p5509
(lp5510
I1
aF5.0
asS'time'
p5511
(lp5512
I6
aF27.5
assS'52098'
p5513
(dp5514
sS'51065'
p5515
(dp5516
sS'57141'
p5517
(dp5518
S'matka'
p5519
(lp5520
I1
aF4.0
asS'dish'
p5521
(lp5522
I2
aF9.0
asS'issues'
p5523
(lp5524
I1
aF3.5
asS'yummy'
p5525
(lp5526
I1
aF4.0
asS'chaa gaye ji tusi chaa gaye'
p5527
(lp5528
I1
aF4.0
asS'phulka'
p5529
(lp5530
I1
aF4.0
asS'punjab'
p5531
(lp5532
I1
aF4.0
asS'desi veg punjabi food'
p5533
(lp5534
I1
aF3.5
asS'edible..'
p5535
(lp5536
I1
aF1.0
asS'ambience'
p5537
(lp5538
I7
aF28.5
asS'punjabi songs'
p5539
(lp5540
I1
aF4.5
asS'worth'
p5541
(lp5542
I1
aF3.5
asS'waiters'
p5543
(lp5544
I1
aF4.0
asS'spicy north indian food'
p5545
(lp5546
I1
aF4.5
asS'excellent taste'
p5547
(lp5548
I1
aF4.0
asS'case'
p5549
(lp5550
I1
aF4.0
asS'rescue'
p5551
(lp5552
I1
aF4.5
asS'lot better punjabi restaurants'
p5553
(lp5554
I1
aF3.0
asS'worst'
p5555
(lp5556
I1
aF2.0
asS'difference'
p5557
(lp5558
I2
aF9.0
asS'kadhai paneer'
p5559
(lp5560
I1
aF4.0
asS'brookfield'
p5561
(lp5562
I1
aF1.0
asS'cheese pakoda balls'
p5563
(lp5564
I2
aF9.0
asS'chilli powder'
p5565
(lp5566
I2
aF9.0
asS'enjoy'
p5567
(lp5568
I1
aF4.0
asS'place.lets'
p5569
(lp5570
I2
aF9.0
asS'pudina khasta paratha'
p5571
(lp5572
I2
aF9.0
asS'parantha'
p5573
(lp5574
I1
aF3.0
asS'kapoors'
p5575
(lp5576
I4
aF16.0
asS'dhabas'
p5577
(lp5578
I2
aF9.0
asS'pataka balls'
p5579
(lp5580
I1
aF3.5
asS'heres'
p5581
(lp5582
I2
aF9.0
asS'sides'
p5583
(lp5584
I1
aF1.0
asS'north indian place'
p5585
(lp5586
I1
aF4.5
asS'indian'
p5587
(lp5588
I2
aF8.5
asS'puris'
p5589
(lp5590
I1
aF3.5
asS'lassi rocks'
p5591
(lp5592
I1
aF4.5
asS'fulkas'
p5593
(lp5594
I2
aF9.0
asS'simple table chair'
p5595
(lp5596
I2
aF9.0
asS'items'
p5597
(lp5598
I2
aF7.0
asS'staff make'
p5599
(lp5600
I1
aF4.0
asS'experience'
p5601
(lp5602
I2
aF6.0
asS'butter paneer masala'
p5603
(lp5604
I1
aF3.0
asS'slight disappointment'
p5605
(lp5606
I1
aF4.5
asS'spices'
p5607
(lp5608
I1
aF4.0
asS'chana'
p5609
(lp5610
I1
aF3.5
asS'influx'
p5611
(lp5612
I1
aF2.0
asS'love'
p5613
(lp5614
I1
aF5.0
asS'mozzarella parantha'
p5615
(lp5616
I1
aF4.0
asS'jeera rice'
p5617
(lp5618
I1
aF4.5
asS'indians'
p5619
(lp5620
I1
aF4.5
asS'visit'
p5621
(lp5622
I1
aF3.5
asS'cashier'
p5623
(lp5624
I1
aF4.0
asS'phone'
p5625
(lp5626
I1
aF2.0
asS'warm'
p5627
(lp5628
I1
aF4.0
asS'desi infrastructure'
p5629
(lp5630
I1
aF4.0
asS'starter'
p5631
(lp5632
I1
aF4.0
asS'panner'
p5633
(lp5634
I1
aF3.0
asS'soni kudi'
p5635
(lp5636
I1
aF2.0
asS'didnt'
p5637
(lp5638
I1
aF4.0
asS'heart'
p5639
(lp5640
I1
aF4.0
asS'foodie'
p5641
(lp5642
I1
aF4.0
asS'awesome'
p5643
(lp5644
I2
aF9.0
asS'combo meal'
p5645
(lp5646
I1
aF4.0
asS'heard'
p5647
(lp5648
I1
aF4.0
asS'foods'
p5649
(lp5650
I1
aF5.0
asS'something'
p5651
(lp5652
I2
aF8.0
asS'sense'
p5653
(lp5654
I1
aF3.0
asS'punjabi food'
p5655
(lp5656
I6
aF25.0
asS'stole'
p5657
(lp5658
I1
aF4.0
asS'shahi tukda'
p5659
(lp5660
I2
aF8.0
asS'butter/ cream'
p5661
(lp5662
I1
aF2.0
asS'arrangement'
p5663
(lp5664
I2
aF9.0
asS'delay'
p5665
(lp5666
I1
aF1.0
asS'chilli onion paratha'
p5667
(lp5668
I2
aF9.0
asS'watery'
p5669
(lp5670
I1
aF4.5
asS'spot'
p5671
(lp5672
I1
aF4.0
asS'vegans'
p5673
(lp5674
I2
aF9.0
asS'da experience'
p5675
(lp5676
I1
aF4.0
asS'pure punjabi food'
p5677
(lp5678
I1
aF4.5
asS'parsthas'
p5679
(lp5680
I1
aF1.0
asS'mishti dahi'
p5681
(lp5682
I1
aF4.0
asS'types'
p5683
(lp5684
I2
aF8.0
asS'chaa gaye ji tusi'
p5685
(lp5686
I1
aF4.0
asS'gobi parata'
p5687
(lp5688
I1
aF4.0
asS'light'
p5689
(lp5690
I1
aF3.5
asS'shukriya hai ji'
p5691
(lp5692
I1
aF4.0
asS'whitefield'
p5693
(lp5694
I1
aF4.0
asS'matra kulcha'
p5695
(lp5696
I1
aF4.5
asS'order'
p5697
(lp5698
I2
aF5.0
asS'pepsi masala soda'
p5699
(lp5700
I1
aF4.0
asS'serving'
p5701
(lp5702
I1
aF4.0
asS'feedback'
p5703
(lp5704
I1
aF4.0
asS'chhaach'
p5705
(lp5706
I1
aF4.0
asS'gobi parantha'
p5707
(lp5708
I1
aF4.5
asS'style'
p5709
(lp5710
I2
aF9.0
asS'fruit cream'
p5711
(lp5712
I2
aF8.5
asS'food today'
p5713
(lp5714
I1
aF1.0
asS'expectations'
p5715
(lp5716
I1
aF2.0
asS'food taste'
p5717
(lp5718
I1
aF4.0
asS'punjabi portion'
p5719
(lp5720
I2
aF9.0
asS'food'
p5721
(lp5722
I18
aF67.5
asS'bang'
p5723
(lp5724
I1
aF4.0
asS'half'
p5725
(lp5726
I1
aF4.0
asS'awesome rajma'
p5727
(lp5728
I1
aF4.5
asS'oaneer pulav'
p5729
(lp5730
I1
aF4.0
asS'rocks'
p5731
(lp5732
I2
aF9.0
asS'filling'
p5733
(lp5734
I1
aF3.0
asS'side'
p5735
(lp5736
I1
aF3.0
asS'food quality'
p5737
(lp5738
I1
aF2.0
asS'punjabi culture phrases'
p5739
(lp5740
I2
aF6.0
asS'paneer pakora'
p5741
(lp5742
I1
aF3.5
asS'city limits'
p5743
(lp5744
I2
aF9.0
asS'burps'
p5745
(lp5746
I1
aF4.5
asS'parathe kha kar man changa ho gaya ji'
p5747
(lp5748
I1
aF4.0
asS'reason'
p5749
(lp5750
I1
aF4.5
asS'alloo jeera'
p5751
(lp5752
I1
aF3.0
asS'weekend crowd'
p5753
(lp5754
I1
aF4.0
asS'thing'
p5755
(lp5756
I2
aF5.0
asS'place'
p5757
(lp5758
I17
aF64.5
asS'way better'
p5759
(lp5760
I1
aF4.0
asS'cheese'
p5761
(lp5762
I1
aF4.5
asS'kadi item'
p5763
(lp5764
I1
aF3.0
asS'feel'
p5765
(lp5766
I1
aF4.0
asS'cheese balls'
p5767
(lp5768
I1
aF4.0
asS'owner'
p5769
(lp5770
I2
aF6.0
asS'calorie'
p5771
(lp5772
I1
aF4.0
asS'quality'
p5773
(lp5774
I2
aF5.0
asS'size'
p5775
(lp5776
I2
aF9.0
asS'management'
p5777
(lp5778
I1
aF1.0
asS'service'
p5779
(lp5780
I4
aF16.5
asS'system'
p5781
(lp5782
I1
aF4.0
asS'anyone'
p5783
(lp5784
I1
aF5.0
asS'aloo pyaaz paratha'
p5785
(lp5786
I1
aF4.0
asS'diwali day'
p5787
(lp5788
I1
aF4.0
asS'masala'
p5789
(lp5790
I2
aF9.0
asS'punjabi pop songs'
p5791
(lp5792
I1
aF4.5
asS'try matka lassi'
p5793
(lp5794
I1
aF4.0
asS'option'
p5795
(lp5796
I1
aF3.0
asS'dhaba style'
p5797
(lp5798
I1
aF5.0
asS'dhaba style food'
p5799
(lp5800
I1
aF4.5
asS'part'
p5801
(lp5802
I3
aF13.0
asS'drool'
p5803
(lp5804
I1
aF4.0
asS'flowers'
p5805
(lp5806
I1
aF4.0
asS'kind'
p5807
(lp5808
I2
aF8.0
asS'job guys'
p5809
(lp5810
I1
aF4.0
asS'french fries'
p5811
(lp5812
I2
aF9.0
asS'desi ghee'
p5813
(lp5814
I1
aF4.0
asS'shitty food'
p5815
(lp5816
I1
aF1.0
asS'maybe'
p5817
(lp5818
I2
aF6.0
asS'khasta paratha'
p5819
(lp5820
I2
aF6.0
asS'dhaba daal'
p5821
(lp5822
I1
aF2.0
asS'dollop'
p5823
(lp5824
I1
aF4.0
asS'kadai paneer'
p5825
(lp5826
I2
aF8.5
asS'punjabi parantha'
p5827
(lp5828
I1
aF4.0
asS'breakfast'
p5829
(lp5830
I2
aF7.5
asS'dishes'
p5831
(lp5832
I1
aF4.5
asS'u get'
p5833
(lp5834
I1
aF5.0
asS'place doesnt remain'
p5835
(lp5836
I2
aF9.0
asS'paneer butter masala'
p5837
(lp5838
I1
aF2.0
asS'urge'
p5839
(lp5840
I1
aF4.0
asS'kesar'
p5841
(lp5842
I2
aF8.0
asS'eater'
p5843
(lp5844
I1
aF4.0
asS'indian food'
p5845
(lp5846
I1
aF4.5
asS'nothing'
p5847
(lp5848
I1
aF2.0
asS'punjabi'
p5849
(lp5850
I4
aF12.0
asS'spicy paneer'
p5851
(lp5852
I1
aF4.5
asS'nice place'
p5853
(lp5854
I1
aF4.0
asS'thand rakho'
p5855
(lp5856
I1
aF2.0
asS'repeat order'
p5857
(lp5858
I1
aF4.5
asS'quantity'
p5859
(lp5860
I1
aF4.0
asS'rating'
p5861
(lp5862
I1
aF4.5
asS'kheer'
p5863
(lp5864
I1
aF3.5
asS'staff'
p5865
(lp5866
I3
aF12.5
asS'aloo pyaaz paratta'
p5867
(lp5868
I1
aF4.0
asS'perfect place'
p5869
(lp5870
I1
aF4.5
asS'menu'
p5871
(lp5872
I2
aF8.0
asS'weekends'
p5873
(lp5874
I2
aF6.0
asS'khasta'
p5875
(lp5876
I2
aF5.0
asS'starters'
p5877
(lp5878
I1
aF3.5
asS'cashews'
p5879
(lp5880
I1
aF4.5
asS'butter.i'
p5881
(lp5882
I1
aF3.0
asS'combo'
p5883
(lp5884
I1
aF4.0
asS'rice'
p5885
(lp5886
I2
aF5.5
asS'hope'
p5887
(lp5888
I1
aF4.0
asS'plate'
p5889
(lp5890
I1
aF4.0
asS'pyaaza'
p5891
(lp5892
I1
aF3.5
asS'nice portions'
p5893
(lp5894
I2
aF9.0
asS'food continers'
p5895
(lp5896
I1
aF1.0
asS'chillies'
p5897
(lp5898
I2
aF9.0
asS'pocket'
p5899
(lp5900
I1
aF3.5
asS'time.\xf0\x9f\x91\x8e'
p5901
(lp5902
I1
aF2.0
asS'outlet'
p5903
(lp5904
I2
aF7.5
asS'chutney'
p5905
(lp5906
I1
aF3.0
asS'punjabi guy'
p5907
(lp5908
I1
aF2.0
asS'rajma'
p5909
(lp5910
I2
aF9.0
asS'kadhi pakoda'
p5911
(lp5912
I1
aF4.5
asS'way south'
p5913
(lp5914
I1
aF4.0
asS'hype'
p5915
(lp5916
I2
aF6.0
asS'exists'
p5917
(lp5918
I1
aF4.5
asS'burst'
p5919
(lp5920
I1
aF4.0
asS'branding'
p5921
(lp5922
I1
aF1.0
asS'seat'
p5923
(lp5924
I1
aF4.0
asS'touch'
p5925
(lp5926
I3
aF10.0
asS'flavours'
p5927
(lp5928
I1
aF4.0
asS'punjabi cuisine'
p5929
(lp5930
I3
aF10.0
asS'parking'
p5931
(lp5932
I4
aF15.0
asS'lots'
p5933
(lp5934
I2
aF8.5
asS'veg\xf0\x9f\x91\x8d..'
p5935
(lp5936
I1
aF4.0
asS'superb'
p5937
(lp5938
I1
aF4.0
asS'paranthas'
p5939
(lp5940
I1
aF4.0
asS'reading'
p5941
(lp5942
I2
aF6.0
asS'approach'
p5943
(lp5944
I1
aF2.0
asS'infrastructure'
p5945
(lp5946
I1
aF2.0
asS'garage kind'
p5947
(lp5948
I2
aF6.0
asS'malai kofta'
p5949
(lp5950
I2
aF9.0
asS'come'
p5951
(lp5952
I1
aF3.0
asS'restaurant'
p5953
(lp5954
I2
aF3.0
asS'residence'
p5955
(lp5956
I1
aF4.0
asS'payaza mushroom masala n'
p5957
(lp5958
I1
aF1.0
asS'poor food quality'
p5959
(lp5960
I1
aF2.0
asS'dhaba kinda taste'
p5961
(lp5962
I2
aF9.0
asS'entrance looks'
p5963
(lp5964
I1
aF4.0
asS'dudes'
p5965
(lp5966
I1
aF2.0
asS'punjabi style'
p5967
(lp5968
I1
aF4.5
asS'gravies'
p5969
(lp5970
I2
aF6.0
asS'flavoursome'
p5971
(lp5972
I1
aF3.5
asS'it\xe2\x80\x99s'
p5973
(lp5974
I2
aF6.0
asS'pindi chole'
p5975
(lp5976
I1
aF4.0
asS'veg north indian food'
p5977
(lp5978
I1
aF4.0
asS'cares'
p5979
(lp5980
I1
aF5.0
asS'gobhi'
p5981
(lp5982
I1
aF4.0
asS'decent'
p5983
(lp5984
I1
aF4.0
asS'cheese pakodas..mutter paratha'
p5985
(lp5986
I1
aF4.0
asS'curries'
p5987
(lp5988
I2
aF4.5
asS'cheese parantha'
p5989
(lp5990
I1
aF4.0
asS'buttermilk'
p5991
(lp5992
I1
aF4.5
asS'resturent'
p5993
(lp5994
I1
aF4.0
asS'life'
p5995
(lp5996
I1
aF4.0
asS'fan punjabi food'
p5997
(lp5998
I1
aF4.5
asS'caf\xc3\xa9'
p5999
(lp6000
I2
aF6.0
asS'jabardasht'
p6001
(lp6002
I1
aF4.0
asS'decent punjabi place'
p6003
(lp6004
I2
aF6.0
asS'prices'
p6005
(lp6006
I2
aF8.0
asS'brunch'
p6007
(lp6008
I1
aF3.5
asS'plants'
p6009
(lp6010
I1
aF4.0
asS'handling'
p6011
(lp6012
I1
aF2.0
asS'bill'
p6013
(lp6014
I2
aF5.0
asS'value'
p6015
(lp6016
I1
aF4.0
asS'jeera rice shai paneer'
p6017
(lp6018
I1
aF1.0
asS'navjot singh siddhu x'
p6019
(lp6020
I1
aF2.0
asS'neat'
p6021
(lp6022
I2
aF9.0
asS'zomato'
p6023
(lp6024
I2
aF6.0
asS'fruit lassi'
p6025
(lp6026
I3
aF12.5
asS'situation'
p6027
(lp6028
I1
aF2.0
asS'chass'
p6029
(lp6030
I1
aF4.0
asS'paratha'
p6031
(lp6032
I4
aF16.0
asS'delivery person'
p6033
(lp6034
I1
aF1.0
asS'paneer lababdar'
p6035
(lp6036
I1
aF4.5
asS'dal makhani'
p6037
(lp6038
I1
aF4.5
asS'punjabi restaurant'
p6039
(lp6040
I2
aF7.5
asS'dhaba'
p6041
(lp6042
I6
aF23.0
asS'place pleasant'
p6043
(lp6044
I1
aF4.0
asS'punjabi items'
p6045
(lp6046
I1
aF4.0
asS'reading raves'
p6047
(lp6048
I2
aF6.0
asS'butter'
p6049
(lp6050
I3
aF12.5
asS'parathas'
p6051
(lp6052
I5
aF18.0
asS'walls'
p6053
(lp6054
I2
aF6.0
asS'lot spicy'
p6055
(lp6056
I2
aF6.0
asS'swiggy order'
p6057
(lp6058
I1
aF1.0
asS'varthur itpl signal'
p6059
(lp6060
I2
aF9.0
asS'o jee'
p6061
(lp6062
I1
aF2.0
asS'money'
p6063
(lp6064
I1
aF4.0
asS'unko keh'
p6065
(lp6066
I1
aF2.0
asS'cheese lovers'
p6067
(lp6068
I1
aF4.5
asS'facts'
p6069
(lp6070
I2
aF6.0
asS'lassi'
p6071
(lp6072
I11
aF43.5
asS'flavor'
p6073
(lp6074
I3
aF10.5
asS'improvement'
p6075
(lp6076
I1
aF4.0
asS'ghee'
p6077
(lp6078
I1
aF4.0
asS'ardent fan'
p6079
(lp6080
I1
aF4.5
asS'dhabha dal'
p6081
(lp6082
I1
aF1.0
asS'background'
p6083
(lp6084
I1
aF4.5
asS'world'
p6085
(lp6086
I1
aF4.5
asS'permanent customer'
p6087
(lp6088
I1
aF5.0
asS'bit spicy n'
p6089
(lp6090
I1
aF4.0
asS'theyre'
p6091
(lp6092
I1
aF2.0
asS'hosts'
p6093
(lp6094
I1
aF4.0
asS'seating'
p6095
(lp6096
I3
aF12.0
asS'right'
p6097
(lp6098
I1
aF4.5
asS'crowd'
p6099
(lp6100
I2
aF6.0
asS'pricing'
p6101
(lp6102
I1
aF3.5
asS'place stinks'
p6103
(lp6104
I1
aF2.0
asS'everything'
p6105
(lp6106
I1
aF4.0
asS'roommate'
p6107
(lp6108
I1
aF4.0
asS'thali'
p6109
(lp6110
I2
aF7.0
asS'punjabi daler mahendi songs'
p6111
(lp6112
I1
aF4.5
asS'lassi..'
p6113
(lp6114
I2
aF8.0
asS'reading reviews'
p6115
(lp6116
I1
aF2.0
asS'chole'
p6117
(lp6118
I1
aF3.5
asS'bangalore'
p6119
(lp6120
I5
aF19.5
asS'paneer paratha'
p6121
(lp6122
I1
aF4.0
asS'favorite'
p6123
(lp6124
I1
aF4.0
asS'meal'
p6125
(lp6126
I1
aF4.0
asS'deserves'
p6127
(lp6128
I1
aF4.5
asS'range'
p6129
(lp6130
I1
aF3.0
asS'yhw whole'
p6131
(lp6132
I1
aF4.0
asS'awesome place'
p6133
(lp6134
I1
aF5.0
asS'road'
p6135
(lp6136
I2
aF6.0
asS'music system'
p6137
(lp6138
I1
aF3.5
asS'masalas'
p6139
(lp6140
I1
aF3.0
asS'place shuts'
p6141
(lp6142
I1
aF4.0
asS'servers'
p6143
(lp6144
I1
aF4.0
asS'roads'
p6145
(lp6146
I2
aF9.0
asS'home delivery paneer'
p6147
(lp6148
I1
aF1.0
asS'area'
p6149
(lp6150
I2
aF6.0
asS'ambience wise'
p6151
(lp6152
I2
aF6.0
asS'butter masala'
p6153
(lp6154
I1
aF4.5
asS'place thrice'
p6155
(lp6156
I1
aF5.0
asS'kulhad'
p6157
(lp6158
I1
aF4.5
asS'menu card'
p6159
(lp6160
I1
aF2.0
asS'happy'
p6161
(lp6162
I1
aF4.0
asS'spicy'
p6163
(lp6164
I3
aF10.0
asS'punjabi taste'
p6165
(lp6166
I1
aF5.0
asS'paneer'
p6167
(lp6168
I6
aF21.5
asS'awesome service'
p6169
(lp6170
I1
aF5.0
asS'places'
p6171
(lp6172
I2
aF7.0
asS'inside'
p6173
(lp6174
I2
aF6.0
asS'overall.it'
p6175
(lp6176
I1
aF4.0
asS'fun evening'
p6177
(lp6178
I1
aF4.5
asS'thick gravy'
p6179
(lp6180
I1
aF3.5
asS'falvors'
p6181
(lp6182
I2
aF9.0
asS'matra'
p6183
(lp6184
I1
aF4.5
asS'taste'
p6185
(lp6186
I3
aF11.0
asS'awesome food'
p6187
(lp6188
I1
aF4.5
asS'curd'
p6189
(lp6190
I1
aF3.0
asS'aloo parantha'
p6191
(lp6192
I2
aF8.5
asS'tasty'
p6193
(lp6194
I1
aF4.5
asS'nice plaxe'
p6195
(lp6196
I1
aF3.5
asS'cafe'
p6197
(lp6198
I1
aF4.5
asS'bhatura'
p6199
(lp6200
I1
aF3.5
asS'tasteless'
p6201
(lp6202
I1
aF2.0
asS'.the owner'
p6203
(lp6204
I1
aF2.0
asS'funjabi'
p6205
(lp6206
I2
aF9.0
asS'masala chaas'
p6207
(lp6208
I1
aF4.0
asS'khasta parantha'
p6209
(lp6210
I1
aF4.5
asS'friends'
p6211
(lp6212
I1
aF4.0
asS'desert'
p6213
(lp6214
I2
aF8.5
asS'lane'
p6215
(lp6216
I2
aF9.0
asS'pure veg'
p6217
(lp6218
I2
aF9.0
asS'time'
p6219
(lp6220
I8
aF28.0
asS'poori chole'
p6221
(lp6222
I1
aF4.0
asS'songs'
p6223
(lp6224
I1
aF3.5
assS'52228'
p6225
(dp6226
S'colleges'
p6227
(lp6228
I1
aF3.5
asS'selection'
p6229
(lp6230
I1
aF5.0
asS'shot'
p6231
(lp6232
I1
aF3.5
asS'dance'
p6233
(lp6234
I1
aF4.5
asS'money'
p6235
(lp6236
I1
aF4.0
asS'non vegetarian palette'
p6237
(lp6238
I1
aF3.5
asS'allergy'
p6239
(lp6240
I1
aF3.5
asS'birthday'
p6241
(lp6242
I2
aF7.0
asS'years'
p6243
(lp6244
I3
aF14.5
asS'patialashahi kadai paneer'
p6245
(lp6246
I2
aF9.0
asS'singapore.since'
p6247
(lp6248
I2
aF10.0
asS'celebrating'
p6249
(lp6250
I1
aF3.5
asS'capsicums'
p6251
(lp6252
I2
aF9.0
asS'costlier side'
p6253
(lp6254
I1
aF4.0
asS'fine'
p6255
(lp6256
I5
aF22.5
asS'staff'
p6257
(lp6258
I7
aF27.5
asS'malai kofta'
p6259
(lp6260
I1
aF4.5
asS'punjabi khanna fit'
p6261
(lp6262
I1
aF4.5
asS'tone'
p6263
(lp6264
I1
aF4.5
asS'spicy food'
p6265
(lp6266
I2
aF8.5
asS'perfect place'
p6267
(lp6268
I1
aF4.0
asS'menu'
p6269
(lp6270
I3
aF15.0
asS'punjab'
p6271
(lp6272
I2
aF6.5
asS'winner'
p6273
(lp6274
I1
aF3.5
asS'arrangements'
p6275
(lp6276
I1
aF4.5
asS'state'
p6277
(lp6278
I1
aF3.0
asS'it\xe2\x80\x99s'
p6279
(lp6280
I1
aF4.5
asS'starters'
p6281
(lp6282
I7
aF30.5
asS'rawalpindi'
p6283
(lp6284
I1
aF3.0
asS'amritsar'
p6285
(lp6286
I1
aF3.0
asS'location'
p6287
(lp6288
I1
aF5.0
asS'visitor'
p6289
(lp6290
I2
aF7.5
asS'ambience'
p6291
(lp6292
I9
aF38.0
asS'ours'
p6293
(lp6294
I2
aF9.0
asS'celebrity chef nishant choubey'
p6295
(lp6296
I2
aF10.0
asS'waiters'
p6297
(lp6298
I2
aF8.5
asS'paneer tikka'
p6299
(lp6300
I3
aF12.5
asS'cottage cheese'
p6301
(lp6302
I2
aF10.0
asS'fancy kulfi faluda'
p6303
(lp6304
I1
aF3.5
asS'customers'
p6305
(lp6306
I1
aF3.0
asS'degustation menu'
p6307
(lp6308
I1
aF4.5
asS'dining space'
p6309
(lp6310
I1
aF3.0
asS'combination'
p6311
(lp6312
I2
aF10.0
asS'food'
p6313
(lp6314
I11
aF45.0
asS'kababs'
p6315
(lp6316
I1
aF4.5
asS'delhi'
p6317
(lp6318
I2
aF10.0
asS'falooda'
p6319
(lp6320
I1
aF5.0
asS'pocket'
p6321
(lp6322
I1
aF3.5
asS'spice level'
p6323
(lp6324
I1
aF4.5
asS'outlet'
p6325
(lp6326
I2
aF9.0
asS'palak paneer'
p6327
(lp6328
I1
aF3.5
asS'inception'
p6329
(lp6330
I3
aF13.5
asS'dose'
p6331
(lp6332
I1
aF3.5
asS'bank'
p6333
(lp6334
I2
aF9.0
asS'dim lights'
p6335
(lp6336
I2
aF6.5
asS'coriander'
p6337
(lp6338
I1
aF5.0
asS'appetizers'
p6339
(lp6340
I1
aF4.5
asS'veg stuffs'
p6341
(lp6342
I1
aF4.5
asS'course'
p6343
(lp6344
I7
aF32.0
asS'occasions'
p6345
(lp6346
I2
aF8.0
asS'childhood'
p6347
(lp6348
I1
aF3.5
asS'tawa veg'
p6349
(lp6350
I1
aF3.5
asS'list'
p6351
(lp6352
I1
aF5.0
asS'punjab grill signature series'
p6353
(lp6354
I1
aF4.5
asS'server'
p6355
(lp6356
I1
aF4.5
asS'butterly\xe2\x80\x99'
p6357
(lp6358
I1
aF4.5
asS'shots'
p6359
(lp6360
I1
aF4.5
asS'sofa'
p6361
(lp6362
I1
aF3.0
asS'kopper kadai restaurant'
p6363
(lp6364
I2
aF9.0
asS'gulab jamun post'
p6365
(lp6366
I1
aF4.0
asS'wallet'
p6367
(lp6368
I1
aF3.5
asS'restaurants'
p6369
(lp6370
I1
aF5.0
asS'chutney foam'
p6371
(lp6372
I1
aF5.0
asS'seating'
p6373
(lp6374
I2
aF9.0
asS'cost'
p6375
(lp6376
I1
aF4.5
asS'chicken starters'
p6377
(lp6378
I1
aF5.0
asS'juliennes'
p6379
(lp6380
I2
aF9.0
asS'shikanjvi'
p6381
(lp6382
I2
aF9.0
asS'lababdar'
p6383
(lp6384
I1
aF4.0
asS'kulfi'
p6385
(lp6386
I1
aF5.0
asS'exp didnt turn'
p6387
(lp6388
I1
aF3.5
asS'good.the food'
p6389
(lp6390
I1
aF4.0
asS'enhance'
p6391
(lp6392
I1
aF4.5
asS'almonds'
p6393
(lp6394
I1
aF5.0
asS'kadhai chicken'
p6395
(lp6396
I1
aF4.0
asS'specialities'
p6397
(lp6398
I1
aF3.0
asS'world gourmet summit'
p6399
(lp6400
I2
aF10.0
asS'couldnt'
p6401
(lp6402
I1
aF5.0
asS'drinks'
p6403
(lp6404
I3
aF13.5
asS'rainy day'
p6405
(lp6406
I1
aF4.5
asS'bhima jewellery'
p6407
(lp6408
I2
aF9.0
asS'food items'
p6409
(lp6410
I1
aF4.5
asS'courses'
p6411
(lp6412
I1
aF4.5
asS'movie'
p6413
(lp6414
I1
aF4.0
asS'review'
p6415
(lp6416
I2
aF10.0
asS'welcome drink'
p6417
(lp6418
I1
aF4.5
asS'looking'
p6419
(lp6420
I1
aF4.0
asS'everything'
p6421
(lp6422
I3
aF12.0
asS'food pricing'
p6423
(lp6424
I1
aF5.0
asS'version'
p6425
(lp6426
I1
aF4.5
asS'dont try'
p6427
(lp6428
I1
aF3.5
asS'plain nunmakki di rotichicken lababdar'
p6429
(lp6430
I1
aF3.0
asS'staffs'
p6431
(lp6432
I1
aF3.0
asS'bread basket'
p6433
(lp6434
I2
aF9.0
asS'price'
p6435
(lp6436
I1
aF5.0
asS'tandoori chicken'
p6437
(lp6438
I1
aF4.0
asS'pan drink'
p6439
(lp6440
I1
aF3.5
asS'hero'
p6441
(lp6442
I1
aF5.0
asS'taste buds'
p6443
(lp6444
I1
aF3.0
asS'nature'
p6445
(lp6446
I1
aF3.5
asS'menu serves'
p6447
(lp6448
I1
aF3.0
asS'chefs'
p6449
(lp6450
I2
aF10.0
asS'team lunch today'
p6451
(lp6452
I2
aF9.0
asS'bangaloreans'
p6453
(lp6454
I1
aF3.5
asS'blowing.a'
p6455
(lp6456
I1
aF4.0
asS'cake'
p6457
(lp6458
I1
aF3.5
asS'menu caters'
p6459
(lp6460
I1
aF3.5
asS'friday night'
p6461
(lp6462
I1
aF3.0
asS'chicken curries'
p6463
(lp6464
I1
aF5.0
asS'bangalore'
p6465
(lp6466
I3
aF13.5
asS'super'
p6467
(lp6468
I1
aF4.0
asS'master chef classes'
p6469
(lp6470
I2
aF10.0
asS'nice place..'
p6471
(lp6472
I1
aF3.5
asS'improve'
p6473
(lp6474
I1
aF4.0
asS'comparison'
p6475
(lp6476
I1
aF5.0
asS'sitting arrangements'
p6477
(lp6478
I1
aF5.0
asS'anything'
p6479
(lp6480
I1
aF4.0
asS'restaurant'
p6481
(lp6482
I9
aF37.0
asS'satisfying lunch'
p6483
(lp6484
I1
aF5.0
asS'region'
p6485
(lp6486
I2
aF10.0
asS'chef choubey'
p6487
(lp6488
I2
aF10.0
asS'space'
p6489
(lp6490
I1
aF5.0
asS'experience'
p6491
(lp6492
I5
aF20.5
asS'punjabi food'
p6493
(lp6494
I4
aF16.5
asS'sofas'
p6495
(lp6496
I1
aF3.5
asS'dinner'
p6497
(lp6498
I2
aF8.0
asS'kitchens'
p6499
(lp6500
I1
aF3.0
asS'place'
p6501
(lp6502
I15
aF61.0
asS'surprises'
p6503
(lp6504
I1
aF4.0
asS'hence'
p6505
(lp6506
I1
aF5.0
asS'spices'
p6507
(lp6508
I1
aF3.5
asS'aam panna'
p6509
(lp6510
I2
aF9.0
asS'rotis'
p6511
(lp6512
I1
aF4.5
asS'shorbas'
p6513
(lp6514
I1
aF5.0
asS'watering'
p6515
(lp6516
I1
aF4.0
asS'creamy texture'
p6517
(lp6518
I1
aF5.0
asS'barbecue nation'
p6519
(lp6520
I1
aF3.5
asS'family'
p6521
(lp6522
I3
aF11.0
asS'heart'
p6523
(lp6524
I2
aF7.0
asS'cooking.. perfect place'
p6525
(lp6526
I1
aF3.5
asS'servers'
p6527
(lp6528
I1
aF5.0
asS'mushrooms'
p6529
(lp6530
I1
aF3.5
asS'dahi ke sholay'
p6531
(lp6532
I1
aF3.5
asS'kings'
p6533
(lp6534
I1
aF4.5
asS'sounds'
p6535
(lp6536
I2
aF10.0
asS'quality'
p6537
(lp6538
I5
aF22.0
asS'select'
p6539
(lp6540
I2
aF10.0
asS'flavors'
p6541
(lp6542
I1
aF5.0
asS'city'
p6543
(lp6544
I4
aF19.0
asS'bangalore.i'
p6545
(lp6546
I1
aF4.0
asS'lamb leg delicacy'
p6547
(lp6548
I1
aF5.0
asS'service'
p6549
(lp6550
I8
aF32.0
asS'area'
p6551
(lp6552
I2
aF9.0
asS'nature. < span'
p6553
(lp6554
I1
aF3.5
asS'destination'
p6555
(lp6556
I1
aF3.0
asS'visit'
p6557
(lp6558
I1
aF3.5
asS'pan shot'
p6559
(lp6560
I1
aF3.5
asS'dahi k kebabs'
p6561
(lp6562
I1
aF3.5
asS'options'
p6563
(lp6564
I2
aF6.5
asS'excellent service'
p6565
(lp6566
I1
aF3.5
asS'masala'
p6567
(lp6568
I1
aF3.5
asS'orange sriracha marmalade'
p6569
(lp6570
I2
aF10.0
asS'mutton keema naan'
p6571
(lp6572
I1
aF5.0
asS'naan'
p6573
(lp6574
I1
aF3.5
asS'friend'
p6575
(lp6576
I1
aF3.5
asS'perfect evening'
p6577
(lp6578
I1
aF3.5
asS'tikka'
p6579
(lp6580
I1
aF4.0
asS'ambiance'
p6581
(lp6582
I1
aF3.5
asS'spicy'
p6583
(lp6584
I3
aF13.5
asS'option'
p6585
(lp6586
I1
aF4.0
asS'whooppeezz pizza'
p6587
(lp6588
I2
aF9.0
asS'fire'
p6589
(lp6590
I1
aF4.0
asS'quantities'
p6591
(lp6592
I1
aF3.5
asS'smokey spicy'
p6593
(lp6594
I1
aF5.0
asS'gurgaon outlet'
p6595
(lp6596
I2
aF7.5
asS'makhani'
p6597
(lp6598
I1
aF3.5
asS'paneer'
p6599
(lp6600
I1
aF4.5
asS'rawalpindi chana'
p6601
(lp6602
I2
aF9.0
asS'pan shots'
p6603
(lp6604
I1
aF3.5
asS'delivery'
p6605
(lp6606
I1
aF4.0
asS'part'
p6607
(lp6608
I4
aF19.0
asS'decent ambience'
p6609
(lp6610
I1
aF4.0
asS'gourmet fine'
p6611
(lp6612
I1
aF3.5
asS'known'
p6613
(lp6614
I2
aF10.0
asS'indian specialty restaurant'
p6615
(lp6616
I2
aF10.0
asS'hole'
p6617
(lp6618
I1
aF3.5
asS'raw mango pulp'
p6619
(lp6620
I2
aF9.0
asS'taste.mutton galauti kababs'
p6621
(lp6622
I1
aF4.0
asS'air options'
p6623
(lp6624
I1
aF3.0
asS'grill'
p6625
(lp6626
I2
aF7.5
asS'flavour'
p6627
(lp6628
I2
aF9.0
asS'koramangala'
p6629
(lp6630
I4
aF13.5
asS'setup'
p6631
(lp6632
I1
aF4.0
asS'interiors'
p6633
(lp6634
I1
aF3.0
asS'worth'
p6635
(lp6636
I1
aF4.0
asS'tummy'
p6637
(lp6638
I1
aF4.5
asS'peshawar'
p6639
(lp6640
I1
aF3.0
asS'street'
p6641
(lp6642
I2
aF9.0
asS'marriage'
p6643
(lp6644
I1
aF5.0
asS'items'
p6645
(lp6646
I2
aF9.0
asS'nice ambience'
p6647
(lp6648
I1
aF4.0
asS'makhni'
p6649
(lp6650
I1
aF4.5
asS'punjabi'
p6651
(lp6652
I1
aF3.5
asS'mistake'
p6653
(lp6654
I1
aF3.5
asS'colleague'
p6655
(lp6656
I2
aF9.0
asS'palate'
p6657
(lp6658
I1
aF5.0
asS'hit number kaala chasma\xf0\x9f\x98\x89'
p6659
(lp6660
I1
aF4.5
asS'bangalore aims'
p6661
(lp6662
I1
aF3.0
asS'fans'
p6663
(lp6664
I1
aF3.5
asS'taste'
p6665
(lp6666
I8
aF31.0
asS'kadai paneer'
p6667
(lp6668
I2
aF9.0
asS'cocktails..'
p6669
(lp6670
I1
aF3.5
asS'table'
p6671
(lp6672
I1
aF4.0
asS'non veg starters'
p6673
(lp6674
I1
aF5.0
asS'kormangla'
p6675
(lp6676
I2
aF8.5
asS'tamarind foam'
p6677
(lp6678
I1
aF5.0
asS'main course'
p6679
(lp6680
I2
aF9.5
asS'veg items'
p6681
(lp6682
I1
aF4.5
asS'something'
p6683
(lp6684
I1
aF3.5
asS'sense'
p6685
(lp6686
I1
aF4.5
asS'blunder'
p6687
(lp6688
I1
aF3.5
asS'bar.the black'
p6689
(lp6690
I1
aF3.0
asS'icing'
p6691
(lp6692
I1
aF3.5
asS'cuisine'
p6693
(lp6694
I2
aF10.0
asS'sweet dish'
p6695
(lp6696
I1
aF3.5
asS'dishes'
p6697
(lp6698
I2
aF8.0
asS'thing'
p6699
(lp6700
I2
aF7.5
asS'non veg'
p6701
(lp6702
I1
aF4.5
asS'concerns'
p6703
(lp6704
I1
aF4.5
asS'biryani'
p6705
(lp6706
I2
aF8.0
asS'doors'
p6707
(lp6708
I1
aF4.5
asS'outdoor area'
p6709
(lp6710
I1
aF3.5
asS'course degustation menu'
p6711
(lp6712
I3
aF14.5
asS'rum gulab jamuns..'
p6713
(lp6714
I1
aF4.0
asS'gravy'
p6715
(lp6716
I3
aF12.0
asS'elements'
p6717
(lp6718
I1
aF5.0
asS'desserts'
p6719
(lp6720
I2
aF7.0
asS'hopes'
p6721
(lp6722
I2
aF7.5
asS'ratings'
p6723
(lp6724
I3
aF14.0
asS'aam panna concentrate'
p6725
(lp6726
I2
aF9.0
asS'forum mall'
p6727
(lp6728
I2
aF9.0
asS'salmon tikka'
p6729
(lp6730
I1
aF4.0
asS'buzz'
p6731
(lp6732
I1
aF5.0
asS'decor'
p6733
(lp6734
I1
aF3.0
asS'buffet'
p6735
(lp6736
I2
aF8.0
asS'spicy side'
p6737
(lp6738
I1
aF4.5
asS'indian food'
p6739
(lp6740
I3
aF10.5
asS'concoctions'
p6741
(lp6742
I1
aF4.5
asS'paneer tikka multani'
p6743
(lp6744
I3
aF13.5
asS'favorites'
p6745
(lp6746
I2
aF10.0
asS'nothing'
p6747
(lp6748
I1
aF5.0
asS'friends'
p6749
(lp6750
I2
aF7.0
asS'celebratory'
p6751
(lp6752
I2
aF10.0
asS'punjabi food places'
p6753
(lp6754
I1
aF4.0
asS'varieties'
p6755
(lp6756
I1
aF4.5
asS'restaurant district'
p6757
(lp6758
I1
aF3.0
asS'curry'
p6759
(lp6760
I1
aF4.5
asS'tricks'
p6761
(lp6762
I1
aF4.0
asS'dessert..'
p6763
(lp6764
I1
aF3.5
asS'well'
p6765
(lp6766
I1
aF4.0
asS'prawns'
p6767
(lp6768
I1
aF3.5
asS'tooth'
p6769
(lp6770
I1
aF5.0
asS'menu w.r.t'
p6771
(lp6772
I1
aF4.5
asS'persons'
p6773
(lp6774
I2
aF7.5
asS'warm'
p6775
(lp6776
I1
aF3.5
asS'punjab grill'
p6777
(lp6778
I3
aF14.5
asS'fact'
p6779
(lp6780
I1
aF3.0
asS'time'
p6781
(lp6782
I1
aF4.0
asS'occasion'
p6783
(lp6784
I2
aF10.0
asS'beetroot peanut tikki'
p6785
(lp6786
I1
aF3.5
asS'forum.i'
p6787
(lp6788
I1
aF4.0
asS'order'
p6789
(lp6790
I1
aF3.5
asS'it\xe2\x80\x99s pure'
p6791
(lp6792
I1
aF4.5
asS'quantity'
p6793
(lp6794
I3
aF12.0
assS'51490'
p6795
(dp6796
sS'58818'
p6797
(dp6798
S'rating'
p6799
(lp6800
I2
aF10.0
asS'morons'
p6801
(lp6802
I2
aF2.0
asS'concept'
p6803
(lp6804
I1
aF3.0
asS'icing sugar'
p6805
(lp6806
I1
aF4.5
asS'melts'
p6807
(lp6808
I1
aF4.5
asS'visitor'
p6809
(lp6810
I1
aF5.0
asS'menu..you'
p6811
(lp6812
I1
aF5.0
asS'icecreams'
p6813
(lp6814
I1
aF5.0
asS'overload'
p6815
(lp6816
I1
aF3.0
asS'questions'
p6817
(lp6818
I1
aF4.5
asS'whats'
p6819
(lp6820
I1
aF5.0
asS'arrangement'
p6821
(lp6822
I1
aF3.0
asS'perfect'
p6823
(lp6824
I1
aF3.5
asS'mumbai'
p6825
(lp6826
I1
aF4.5
asS'front'
p6827
(lp6828
I2
aF2.0
asS'menu'
p6829
(lp6830
I2
aF9.0
asS'proportion'
p6831
(lp6832
I1
aF3.0
asS'sugar'
p6833
(lp6834
I1
aF3.5
asS'spread'
p6835
(lp6836
I1
aF4.5
asS'ice cream laden waffles'
p6837
(lp6838
I2
aF2.0
asS'money'
p6839
(lp6840
I1
aF3.5
asS'reason'
p6841
(lp6842
I2
aF2.0
asS'presentation'
p6843
(lp6844
I1
aF4.0
asS'worth'
p6845
(lp6846
I1
aF5.0
asS'hope'
p6847
(lp6848
I2
aF9.0
asS'case'
p6849
(lp6850
I1
aF3.0
asS'coffee'
p6851
(lp6852
I1
aF3.0
asS'evening'
p6853
(lp6854
I1
aF4.0
asS'combination'
p6855
(lp6856
I3
aF14.0
asS'food'
p6857
(lp6858
I3
aF6.5
asS'dessert'
p6859
(lp6860
I2
aF7.5
asS'ones'
p6861
(lp6862
I1
aF4.5
asS'outlet'
p6863
(lp6864
I4
aF16.5
asS'indulge'
p6865
(lp6866
I1
aF3.5
asS'combinations'
p6867
(lp6868
I1
aF4.5
asS'amazing dish z'
p6869
(lp6870
I1
aF4.5
asS'areas'
p6871
(lp6872
I2
aF2.0
asS'maple syrup'
p6873
(lp6874
I1
aF5.0
asS'name'
p6875
(lp6876
I3
aF11.5
asS'chairs'
p6877
(lp6878
I1
aF4.0
asS'list'
p6879
(lp6880
I1
aF3.0
asS'topnotch'
p6881
(lp6882
I1
aF5.0
asS'theyre'
p6883
(lp6884
I2
aF2.0
asS'wish'
p6885
(lp6886
I1
aF4.0
asS'seating area'
p6887
(lp6888
I1
aF3.0
asS'meal'
p6889
(lp6890
I1
aF3.5
asS'enjoy'
p6891
(lp6892
I1
aF4.0
asS'lift works'
p6893
(lp6894
I2
aF2.0
asS'people'
p6895
(lp6896
I6
aF19.0
asS'ambiance'
p6897
(lp6898
I1
aF3.0
asS'waffle'
p6899
(lp6900
I9
aF30.5
asS'gates'
p6901
(lp6902
I2
aF2.0
asS'ice cream'
p6903
(lp6904
I3
aF12.0
asS'food court'
p6905
(lp6906
I1
aF4.5
asS'ate waffles'
p6907
(lp6908
I1
aF5.0
asS'weekdays'
p6909
(lp6910
I2
aF2.0
asS'space'
p6911
(lp6912
I2
aF2.0
asS'ways'
p6913
(lp6914
I1
aF5.0
asS'nut cracker'
p6915
(lp6916
I1
aF4.5
asS'nutella'
p6917
(lp6918
I2
aF9.0
asS'mall'
p6919
(lp6920
I2
aF2.0
asS'fav ones'
p6921
(lp6922
I1
aF4.5
asS'everything'
p6923
(lp6924
I1
aF5.0
asS'nutella waffle'
p6925
(lp6926
I1
aF4.5
asS'maple'
p6927
(lp6928
I2
aF9.5
asS'belgyums'
p6929
(lp6930
I2
aF2.0
asS'chocolate truffles'
p6931
(lp6932
I1
aF4.5
asS'reading'
p6933
(lp6934
I1
aF3.5
asS'so-so value'
p6935
(lp6936
I1
aF3.5
asS'flavors'
p6937
(lp6938
I2
aF9.0
asS'cream tastes'
p6939
(lp6940
I1
aF4.0
asS'customer service'
p6941
(lp6942
I1
aF5.0
asS'leave stomach'
p6943
(lp6944
I1
aF4.5
asS'rushing shirt'
p6945
(lp6946
I2
aF2.0
asS'hype'
p6947
(lp6948
I1
aF3.0
asS'chocolate belge waffle'
p6949
(lp6950
I1
aF3.0
asS'others'
p6951
(lp6952
I1
aF4.5
asS'stomach'
p6953
(lp6954
I1
aF4.5
asS'heads'
p6955
(lp6956
I1
aF1.0
asS'nice waffles'
p6957
(lp6958
I1
aF4.0
asS'waffle place'
p6959
(lp6960
I1
aF3.5
asS'comparison'
p6961
(lp6962
I1
aF3.0
asS'houses'
p6963
(lp6964
I2
aF2.0
asS'cafes'
p6965
(lp6966
I1
aF3.0
asS'shoulders'
p6967
(lp6968
I1
aF1.0
asS'lot number'
p6969
(lp6970
I1
aF4.5
asS'times'
p6971
(lp6972
I2
aF9.0
asS'ice cream rubs'
p6973
(lp6974
I2
aF2.0
asS'range'
p6975
(lp6976
I1
aF3.5
asS'toppings'
p6977
(lp6978
I6
aF25.0
asS'atleast'
p6979
(lp6980
I1
aF5.0
asS'faces'
p6981
(lp6982
I2
aF2.0
asS'banana nutella waffle'
p6983
(lp6984
I1
aF5.0
asS'passing'
p6985
(lp6986
I2
aF2.0
asS'options'
p6987
(lp6988
I4
aF15.0
asS'road'
p6989
(lp6990
I2
aF2.0
asS'thats'
p6991
(lp6992
I2
aF2.0
asS'preparation delights'
p6993
(lp6994
I1
aF5.0
asS'love'
p6995
(lp6996
I2
aF9.0
asS'dont'
p6997
(lp6998
I2
aF2.0
asS'flats'
p6999
(lp7000
I2
aF2.0
asS'doesnt spill'
p7001
(lp7002
I1
aF1.0
asS'number'
p7003
(lp7004
I3
aF13.0
asS'nuttela waffles'
p7005
(lp7006
I1
aF4.5
asS'creame'
p7007
(lp7008
I2
aF2.0
asS'crispy'
p7009
(lp7010
I3
aF14.0
asS'market'
p7011
(lp7012
I1
aF5.0
asS'size'
p7013
(lp7014
I1
aF4.5
asS'standing'
p7015
(lp7016
I1
aF3.0
asS'city'
p7017
(lp7018
I1
aF3.0
asS'15mins'
p7019
(lp7020
I1
aF4.5
asS'waffles fan'
p7021
(lp7022
I1
aF4.5
asS'quality'
p7023
(lp7024
I1
aF4.0
asS'friends'
p7025
(lp7026
I1
aF3.0
asS'visit'
p7027
(lp7028
I1
aF4.5
asS'shakes.kudos'
p7029
(lp7030
I1
aF4.5
asS'caramel sauce'
p7031
(lp7032
I1
aF4.5
asS'bits'
p7033
(lp7034
I1
aF3.0
asS'banana'
p7035
(lp7036
I2
aF9.0
asS'again.. everything'
p7037
(lp7038
I1
aF5.0
asS'head'
p7039
(lp7040
I1
aF3.5
asS'mantri mall'
p7041
(lp7042
I1
aF4.5
asS'nutella waffles'
p7043
(lp7044
I2
aF7.5
asS'excellent excuse'
p7045
(lp7046
I1
aF4.5
asS'thay'
p7047
(lp7048
I1
aF3.5
asS'impress'
p7049
(lp7050
I2
aF2.0
asS'chocolate'
p7051
(lp7052
I1
aF3.0
asS'bypass route'
p7053
(lp7054
I2
aF2.0
asS'wow.i wish'
p7055
(lp7056
I1
aF4.5
asS'strawberry sauce'
p7057
(lp7058
I1
aF4.5
asS'prices'
p7059
(lp7060
I1
aF4.5
asS'nutcase'
p7061
(lp7062
I1
aF4.5
asS'it.will visit'
p7063
(lp7064
I1
aF4.5
asS'upfront'
p7065
(lp7066
I1
aF3.0
asS'town'
p7067
(lp7068
I2
aF8.5
asS'rush'
p7069
(lp7070
I1
aF4.5
asS'sauce'
p7071
(lp7072
I4
aF16.5
asS'reviews'
p7073
(lp7074
I1
aF3.5
asS'matter'
p7075
(lp7076
I2
aF2.0
asS'while'
p7077
(lp7078
I1
aF5.0
asS'cravings'
p7079
(lp7080
I1
aF3.5
asS'fruits'
p7081
(lp7082
I2
aF8.5
asS'malls'
p7083
(lp7084
I1
aF4.5
asS'chip'
p7085
(lp7086
I1
aF3.5
asS'theres'
p7087
(lp7088
I1
aF5.0
asS'belgyum team'
p7089
(lp7090
I1
aF4.5
asS'vanilla ice cream'
p7091
(lp7092
I1
aF4.5
asS'taste'
p7093
(lp7094
I4
aF15.5
asS'worth spending single penny'
p7095
(lp7096
I1
aF4.5
asS'awesome'
p7097
(lp7098
I1
aF5.0
asS'tastiest waffles'
p7099
(lp7100
I1
aF4.5
asS'india'
p7101
(lp7102
I1
aF5.0
asS'briefs'
p7103
(lp7104
I2
aF2.0
asS'chocolate sauce'
p7105
(lp7106
I1
aF3.0
asS'orion'
p7107
(lp7108
I1
aF4.5
asS'waffles lovers'
p7109
(lp7110
I2
aF7.5
asS'banana combination'
p7111
(lp7112
I1
aF5.0
asS'dessert joints'
p7113
(lp7114
I1
aF1.0
asS'shopping'
p7115
(lp7116
I1
aF5.0
asS'cream'
p7117
(lp7118
I3
aF13.5
asS'phoenix mall'
p7119
(lp7120
I2
aF8.5
asS'belgyum'
p7121
(lp7122
I3
aF6.5
asS'winter surprise'
p7123
(lp7124
I1
aF4.5
asS'nuts'
p7125
(lp7126
I3
aF13.5
asS'time favourite waffle place'
p7127
(lp7128
I1
aF5.0
asS'waffles'
p7129
(lp7130
I19
aF79.0
asS'till'
p7131
(lp7132
I1
aF4.5
asS'sauces'
p7133
(lp7134
I2
aF9.5
asS'corridor'
p7135
(lp7136
I1
aF3.0
asS'test'
p7137
(lp7138
I1
aF5.0
asS'place'
p7139
(lp7140
I15
aF65.5
asS'fudge'
p7141
(lp7142
I2
aF2.0
asS'nice'
p7143
(lp7144
I1
aF5.0
asS'waffle lover'
p7145
(lp7146
I2
aF7.5
asS'phoenix'
p7147
(lp7148
I4
aF11.0
asS'price'
p7149
(lp7150
I3
aF6.0
asS'mouth'
p7151
(lp7152
I1
aF4.5
asS'brands'
p7153
(lp7154
I1
aF5.0
asS'weekend'
p7155
(lp7156
I1
aF4.5
asS'butter'
p7157
(lp7158
I1
aF3.5
asS'wife'
p7159
(lp7160
I1
aF5.0
asS'pheonix mall'
p7161
(lp7162
I1
aF4.0
asS'whitefield'
p7163
(lp7164
I1
aF5.0
asS'powder sugar'
p7165
(lp7166
I1
aF4.5
asS'tooth'
p7167
(lp7168
I1
aF5.0
asS'zomato rating system..'
p7169
(lp7170
I1
aF5.0
asS'time'
p7171
(lp7172
I4
aF19.0
asS'ice creams'
p7173
(lp7174
I2
aF2.0
asS'talk'
p7175
(lp7176
I1
aF3.5
ass.