(dp0
S'52599'
p1
(dp2
S'service'
p3
(lp4
I2
aF9.5
asS'food'
p5
(lp6
I1
aF4.5
asS'awesome'
p7
(lp8
I1
aI5
asS'service pepele r'
p9
(lp10
I1
aI5
asS'alfam'
p11
(lp12
I1
aF4.5
asS'.i m'
p13
(lp14
I1
aF4.5
asS'r'
p15
(lp16
I1
aF4.5
asS'thanks'
p17
(lp18
I1
aF4.5
asS'resalurent branch indranagar today'
p19
(lp20
I1
aF4.5
asS'ambanice'
p21
(lp22
I1
aI5
asS'happy'
p23
(lp24
I1
aF4.5
ass.