(dp0
S'52282'
p1
(dp2
S'summer'
p3
(lp4
I1
aF1.0
asS'time i'
p5
(lp6
I2
aF7.0
asS'etiquette'
p7
(lp8
I1
aF1.0
asS'money'
p9
(lp10
I1
aF1.0
asS'dosa'
p11
(lp12
I1
aF4.5
asS'years'
p13
(lp14
I1
aF3.0
asS'coffee board'
p15
(lp16
I2
aF8.0
asS'looks'
p17
(lp18
I1
aF1.0
asS'upkeep'
p19
(lp20
I1
aF3.5
asS'pointer'
p21
(lp22
I1
aF4.0
asS'decade'
p23
(lp24
I1
aF1.0
asS'toast'
p25
(lp26
I2
aF6.5
asS'workers'
p27
(lp28
I2
aF8.0
asS'point'
p29
(lp30
I1
aF3.5
asS'kerala'
p31
(lp32
I1
aF3.0
asS'feel'
p33
(lp34
I1
aF1.0
asS'leader a. k. gopalan'
p35
(lp36
I2
aF8.0
asS'board'
p37
(lp38
I2
aF8.0
asS'ambience'
p39
(lp40
I4
aF11.5
asS'smile'
p41
(lp42
I2
aF6.5
asS'weeks'
p43
(lp44
I1
aF3.0
asS'societies'
p45
(lp46
I3
aF12.5
asS'worth'
p47
(lp48
I1
aF1.0
asS'waiters'
p49
(lp50
I4
aF9.0
asS'coffee'
p51
(lp52
I8
aF23.5
asS'chennai'
p53
(lp54
I1
aF4.5
asS'combination'
p55
(lp56
I1
aF1.0
asS'government'
p57
(lp58
I1
aF2.5
asS'food'
p59
(lp60
I5
aF11.5
asS'delhi'
p61
(lp62
I2
aF8.5
asS'restaurant chain'
p63
(lp64
I2
aF7.5
asS'outlet'
p65
(lp66
I3
aF11.0
asS'foot'
p67
(lp68
I1
aF4.0
asS'chutney'
p69
(lp70
I1
aF4.5
asS'furniture'
p71
(lp72
I3
aF9.5
asS'suggestion.when i'
p73
(lp74
I1
aF3.0
asS'heaven'
p75
(lp76
I1
aF4.0
asS'ditto'
p77
(lp78
I1
aF3.0
asS'course'
p79
(lp80
I2
aF8.0
asS'me.. i'
p81
(lp82
I1
aF4.0
asS'worker co'
p83
(lp84
I2
aF7.5
asS'morning'
p85
(lp86
I2
aF6.5
asS'mighty uniforms'
p87
(lp88
I1
aF4.0
asS'cutlet'
p89
(lp90
I1
aF3.5
asS'coffee workers'
p91
(lp92
I2
aF8.0
asS'vintage bengaluru'
p93
(lp94
I1
aF4.0
asS'operatives'
p95
(lp96
I2
aF6.5
asS'restaurants'
p97
(lp98
I2
aF5.5
asS'seniors'
p99
(lp100
I1
aF3.5
asS'school'
p101
(lp102
I1
aF3.0
asS'series'
p103
(lp104
I2
aF7.5
asS'ambiance'
p105
(lp106
I1
aF1.0
asS'idea'
p107
(lp108
I2
aF8.0
asS'society'
p109
(lp110
I1
aF3.0
asS'street'
p111
(lp112
I1
aF4.5
asS'food.it'
p113
(lp114
I1
aF3.0
asS'mutton cutlet'
p115
(lp116
I1
aF1.0
asS'server'
p117
(lp118
I1
aF4.0
asS'vada'
p119
(lp120
I1
aF3.5
asS'capacity'
p121
(lp122
I1
aF3.0
asS'network'
p123
(lp124
I2
aF6.5
asS'madras'
p125
(lp126
I1
aF4.5
asS'yore.we'
p127
(lp128
I1
aF1.0
asS'quality'
p129
(lp130
I1
aF3.5
asS'everything'
p131
(lp132
I1
aF3.0
asS'mother societies'
p133
(lp134
I1
aF4.5
asS'price'
p135
(lp136
I2
aF6.5
asS'1890s'
p137
(lp138
I2
aF8.0
asS'movement'
p139
(lp140
I2
aF8.0
asS'mutton cutlets'
p141
(lp142
I1
aF1.0
asS'coffee house chain'
p143
(lp144
I2
aF8.0
asS'bangaloreans'
p145
(lp146
I2
aF4.0
asS'vintage establishment'
p147
(lp148
I1
aF4.0
asS'others'
p149
(lp150
I1
aF3.5
asS'resurrection'
p151
(lp152
I1
aF1.0
asS'bangalore'
p153
(lp154
I3
aF9.5
asS'change'
p155
(lp156
I2
aF8.0
asS'wait'
p157
(lp158
I1
aF4.5
asS'water'
p159
(lp160
I1
aF3.5
asS'policy'
p161
(lp162
I2
aF8.0
asS'cafe'
p163
(lp164
I1
aF3.0
asS'days'
p165
(lp166
I1
aF4.0
asS'times'
p167
(lp168
I2
aF4.0
asS'thing'
p169
(lp170
I1
aF3.5
asS'kitchen doesnt'
p171
(lp172
I1
aF3.5
asS'place'
p173
(lp174
I11
aF29.5
asS'opinion'
p175
(lp176
I1
aF3.0
asS'weekends'
p177
(lp178
I1
aF4.5
asS'south'
p179
(lp180
I1
aF3.0
asS'coffee didnt disappoint'
p181
(lp182
I1
aF4.0
asS'chai/kappi'
p183
(lp184
I1
aF4.0
asS'whats'
p185
(lp186
I1
aF3.5
asS'patrons'
p187
(lp188
I1
aF1.0
asS'coffee houses'
p189
(lp190
I2
aF8.0
asS'presence'
p191
(lp192
I2
aF8.0
asS'pocket friendly.however'
p193
(lp194
I1
aF3.0
asS'sweet'
p195
(lp196
I1
aF3.0
asS'servers'
p197
(lp198
I3
aF10.5
asS'tempered.try'
p199
(lp200
I1
aF4.5
asS'church'
p201
(lp202
I1
aF3.0
asS'table'
p203
(lp204
I1
aF3.5
asS'bombay'
p205
(lp206
I2
aF8.0
asS'hotels'
p207
(lp208
I1
aF1.0
asS'coffee house'
p209
(lp210
I6
aF19.5
asS'service'
p211
(lp212
I4
aF12.0
asS'days breakfast'
p213
(lp214
I1
aF3.5
asS'place doesnt'
p215
(lp216
I1
aF3.5
asS'doubt'
p217
(lp218
I1
aF1.0
asS'memory'
p219
(lp220
I1
aF3.5
asS'cold kappi'
p221
(lp222
I1
aF3.0
asS'cucumber sandwich'
p223
(lp224
I1
aF3.0
asS'care'
p225
(lp226
I1
aF4.5
asS'type'
p227
(lp228
I1
aF3.5
asS'today'
p229
(lp230
I1
aF4.0
asS'location'
p231
(lp232
I2
aF7.5
asS'juice instead.the'
p233
(lp234
I1
aF3.0
asS'tomato'
p235
(lp236
I1
aF3.0
asS'life'
p237
(lp238
I1
aF3.0
asS'spicy'
p239
(lp240
I1
aF3.5
asS'upma'
p241
(lp242
I1
aF3.5
asS'sunshine'
p243
(lp244
I1
aF4.0
asS'charm.we'
p245
(lp246
I1
aF4.5
asS'introduction'
p247
(lp248
I1
aF3.0
asS'egg omelette'
p249
(lp250
I1
aF3.5
asS'boys'
p251
(lp252
I1
aF3.5
asS'omelet'
p253
(lp254
I1
aF3.0
asS'prices'
p255
(lp256
I2
aF8.0
asS'masala dosa'
p257
(lp258
I2
aF8.0
asS'kind'
p259
(lp260
I1
aF3.0
asS'word'
p261
(lp262
I1
aF1.0
asS'places'
p263
(lp264
I2
aF7.5
asS'dying restaurant'
p265
(lp266
I1
aF1.0
asS'inside'
p267
(lp268
I1
aF3.5
asS'school ambiance'
p269
(lp270
I1
aF1.0
asS'value'
p271
(lp272
I1
aF1.0
asS'while'
p273
(lp274
I1
aF4.5
asS'friend'
p275
(lp276
I1
aF3.0
asS'zomato'
p277
(lp278
I1
aF3.5
asS'minutes'
p279
(lp280
I1
aF3.5
asS'history'
p281
(lp282
I1
aF4.5
asS'omelettes'
p283
(lp284
I3
aF5.0
asS'uniforms'
p285
(lp286
I1
aF1.0
asS'sambar'
p287
(lp288
I1
aF4.5
asS'taste'
p289
(lp290
I5
aF14.0
asS'december'
p291
(lp292
I2
aF8.5
asS'india'
p293
(lp294
I4
aF15.5
asS'breakfast'
p295
(lp296
I1
aF3.5
asS'mins'
p297
(lp298
I1
aF3.5
asS'breakfast right'
p299
(lp300
I1
aF3.0
asS'filter coffee'
p301
(lp302
I1
aF4.5
asS'anymore'
p303
(lp304
I1
aF3.5
asS'things'
p305
(lp306
I1
aF3.0
asS'coffeee'
p307
(lp308
I1
aF1.0
asS'me..'
p309
(lp310
I1
aF4.0
asS'sandwiches'
p311
(lp312
I1
aF1.0
asS'bengaluru ..laid'
p313
(lp314
I1
aF3.0
asS'restaurant'
p315
(lp316
I1
aF1.0
asS'shouldnt look'
p317
(lp318
I1
aF1.0
asS'nice'
p319
(lp320
I1
aF4.0
asS'egg toast'
p321
(lp322
I1
aF3.0
asS'vintage outlet'
p323
(lp324
I1
aF3.0
asS'bonus'
p325
(lp326
I1
aF3.0
asS'eggs'
p327
(lp328
I4
aF12.5
asS'outlets'
p329
(lp330
I3
aF11.0
asS'bangalore coffee house'
p331
(lp332
I1
aF4.5
asS'sure'
p333
(lp334
I1
aF1.0
asS'charm'
p335
(lp336
I1
aF3.0
asS'toasts'
p337
(lp338
I1
aF1.0
asS'spirits'
p339
(lp340
I1
aF2.5
asS'butter'
p341
(lp342
I1
aF4.5
asS'omelette'
p343
(lp344
I2
aF6.0
asS'page menu'
p345
(lp346
I1
aF3.0
asS'coffee cess committee'
p347
(lp348
I2
aF8.0
asS'cutlets'
p349
(lp350
I3
aF6.5
asS'kerala connection.the'
p351
(lp352
I2
aF8.0
asS'average'
p353
(lp354
I1
aF4.5
asS'face'
p355
(lp356
I1
aF3.5
asS'sambhar'
p357
(lp358
I1
aF3.5
asS'colonial clothing'
p359
(lp360
I1
aF1.0
asS'road'
p361
(lp362
I3
aF8.5
asS'time'
p363
(lp364
I5
aF18.5
asS'smile.filter coffee'
p365
(lp366
I1
aF2.5
assS'58646'
p367
(dp368
S'breakfast items'
p369
(lp370
I1
aF4.5
asS'rating'
p371
(lp372
I1
aF4.5
asS'concept'
p373
(lp374
I1
aF4.5
asS'time i'
p375
(lp376
I1
aF5.0
asS'melts'
p377
(lp378
I2
aF8.0
asS'yum masala dosa becoz'
p379
(lp380
I1
aF3.5
asS'dosa'
p381
(lp382
I3
aF12.5
asS'years'
p383
(lp384
I3
aF13.0
asS'bhath'
p385
(lp386
I1
aF3.5
asS'idlies'
p387
(lp388
I1
aF5.0
asS'vadas'
p389
(lp390
I1
aF5.0
asS'veena'
p391
(lp392
I1
aF4.0
asS'staff'
p393
(lp394
I1
aF4.5
asS'bite restaurant \xf0\x9f\x8d\xbd'
p395
(lp396
I1
aF4.0
asS'kharabhaat'
p397
(lp398
I1
aF5.0
asS'bda park.masala dosa'
p399
(lp400
I1
aF4.0
asS'spite'
p401
(lp402
I1
aF5.0
asS'mother'
p403
(lp404
I1
aF4.5
asS'menu'
p405
(lp406
I5
aF20.0
asS'source'
p407
(lp408
I1
aF4.0
asS'ambience'
p409
(lp410
I2
aF7.5
asS'dishes\xf0\x9f\x98\x81'
p411
(lp412
I1
aF3.5
asS'plate'
p413
(lp414
I2
aF8.0
asS'coffee'
p415
(lp416
I5
aF22.0
asS'bangalore.they'
p417
(lp418
I1
aF4.0
asS'food'
p419
(lp420
I7
aF29.5
asS'dope'
p421
(lp422
I1
aF4.5
asS'banashankari'
p423
(lp424
I3
aF14.5
asS'outlet'
p425
(lp426
I1
aF4.0
asS'taste ..'
p427
(lp428
I1
aF4.0
asS'front'
p429
(lp430
I1
aF4.0
asS'chutney'
p431
(lp432
I10
aF43.5
asS'chatni'
p433
(lp434
I1
aF4.0
asS'sundays'
p435
(lp436
I2
aF8.0
asS'issue'
p437
(lp438
I1
aF4.5
asS'idlivada masala dosakhara bathkesari bathrava idli'
p439
(lp440
I1
aF4.5
asS'wait'
p441
(lp442
I1
aF4.5
asS'morning'
p443
(lp444
I2
aF9.0
asS'item'
p445
(lp446
I1
aF4.0
asS'till date'
p447
(lp448
I1
aF3.5
asS'steps'
p449
(lp450
I1
aF5.0
asS'banashankari crowd'
p451
(lp452
I1
aF5.0
asS'night'
p453
(lp454
I1
aF4.5
asS'side'
p455
(lp456
I1
aF4.0
asS'feast'
p457
(lp458
I1
aF4.5
asS'tempts'
p459
(lp460
I1
aF4.5
asS'neighborhood'
p461
(lp462
I1
aF4.5
asS'people'
p463
(lp464
I2
aF8.0
asS'freshness'
p465
(lp466
I1
aF5.0
asS'ambiance'
p467
(lp468
I1
aF4.5
asS'childhood favorite.they'
p469
(lp470
I1
aF3.5
asS'india i guess'
p471
(lp472
I1
aF4.5
asS'sight'
p473
(lp474
I1
aF3.5
asS'parking'
p475
(lp476
I1
aF4.5
asS'vada'
p477
(lp478
I8
aF34.0
asS'cleanliness'
p479
(lp480
I1
aF4.0
asS'chutney combination'
p481
(lp482
I1
aF4.0
asS'\xf0\x9f\x91\x8d\xf0\x9f\x8f\xbd\xf0\x9f\x91\x8d\xf0\x9f\x8f\xbd\xf0\x9f\x91\x8d\xf0\x9f\x8f\xbd\xf0\x9f\x91\x8d\xf0\x9f\x8f\xbd\xf0\x9f\x91\x8d\xf0\x9f\x8f\xbd'
p483
(lp484
I1
aF4.0
asS'token'
p485
(lp486
I1
aF4.0
asS'decade'
p487
(lp488
I1
aF5.0
asS'youll'
p489
(lp490
I1
aF3.5
asS'nothing flashy'
p491
(lp492
I1
aF4.0
asS'breakfast joint'
p493
(lp494
I1
aF5.0
asS'eating'
p495
(lp496
I1
aF5.0
asS'taste buds'
p497
(lp498
I1
aF4.5
asS'bangalore'
p499
(lp500
I1
aF4.5
asS'malleshwaram'
p501
(lp502
I1
aF4.0
asS'food \xf0\x9f\x98\x8d'
p503
(lp504
I1
aF4.0
asS'lack'
p505
(lp506
I1
aF5.0
asS'breakfast hangout'
p507
(lp508
I1
aF5.0
asS'self service'
p509
(lp510
I1
aF4.5
asS'care'
p511
(lp512
I1
aF4.5
asS'crowed.we'
p513
(lp514
I1
aF4.5
asS'coffee shop'
p515
(lp516
I1
aF4.0
asS'restaurant'
p517
(lp518
I3
aF13.5
asS'items'
p519
(lp520
I1
aF4.5
asS'favorite'
p521
(lp522
I1
aF4.0
asS'days'
p523
(lp524
I1
aF4.5
asS'times'
p525
(lp526
I1
aF4.5
asS'park infron'
p527
(lp528
I1
aF4.5
asS'place'
p529
(lp530
I14
aF59.5
asS'weekday'
p531
(lp532
I1
aF3.5
asS'breakfast place'
p533
(lp534
I1
aF5.0
asS'pit stop'
p535
(lp536
I1
aF4.0
asS'south'
p537
(lp538
I1
aF3.5
asS'hygine'
p539
(lp540
I1
aF4.5
asS'love'
p541
(lp542
I1
aF3.5
asS'dont'
p543
(lp544
I1
aF3.5
asS'reasons'
p545
(lp546
I1
aF3.5
asS'i guess'
p547
(lp548
I1
aF4.5
asS'bath'
p549
(lp550
I4
aF17.0
asS'mysore road ..'
p551
(lp552
I1
aF4.0
asS'chetni'
p553
(lp554
I1
aF5.0
asS'quality'
p555
(lp556
I2
aF7.5
asS'wada'
p557
(lp558
I1
aF4.0
asS'size'
p559
(lp560
I1
aF5.0
asS'standing'
p561
(lp562
I1
aF5.0
asS'taste.coffee'
p563
(lp564
I1
aF4.0
asS'service'
p565
(lp566
I2
aF9.0
asS'mark'
p567
(lp568
I1
aF4.0
asS'doubt'
p569
(lp570
I1
aF3.5
asS'bengaluru'
p571
(lp572
I1
aF4.0
asS'time'
p573
(lp574
I1
aF4.5
asS'stage'
p575
(lp576
I2
aF8.0
asS'type'
p577
(lp578
I1
aF4.0
asS'mornings'
p579
(lp580
I1
aF5.0
asS'upma i'
p581
(lp582
I1
aF4.5
asS'wait.idli'
p583
(lp584
I1
aF4.5
asS'park'
p585
(lp586
I1
aF4.5
asS'tokens'
p587
(lp588
I1
aF4.5
asS'eatery'
p589
(lp590
I2
aF8.0
asS'masala dosa'
p591
(lp592
I2
aF9.0
asS'refreshing filter coffee'
p593
(lp594
I1
aF4.0
asS'town'
p595
(lp596
I2
aF8.0
asS'wen food'
p597
(lp598
I1
aF4.0
asS'kharabath'
p599
(lp600
I2
aF9.0
asS'places'
p601
(lp602
I3
aF13.0
asS'cash counter'
p603
(lp604
I1
aF4.0
asS'slv hein'
p605
(lp606
I1
aF4.5
asS'shops'
p607
(lp608
I1
aF5.0
asS'idili'
p609
(lp610
I1
aF3.5
asS'idli'
p611
(lp612
I6
aF25.5
asS'something'
p613
(lp614
I1
aF4.0
asS'coffee bar'
p615
(lp616
I1
aF4.5
asS'ambience ..their vada'
p617
(lp618
I1
aF4.0
asS'sambar'
p619
(lp620
I1
aF5.0
asS'taste'
p621
(lp622
I5
aF21.5
asS'orderd'
p623
(lp624
I1
aF4.0
asS'heart .overall'
p625
(lp626
I1
aF4.0
asS'foods'
p627
(lp628
I1
aF4.5
asS'brahmins'
p629
(lp630
I1
aF4.5
asS'infront'
p631
(lp632
I1
aF4.5
asS'coffee etc.so'
p633
(lp634
I1
aF4.5
asS'food tastes'
p635
(lp636
I1
aF4.5
asS'breakfast'
p637
(lp638
I4
aF16.5
asS'dosas'
p639
(lp640
I1
aF4.5
asS'that..'
p641
(lp642
I1
aF4.5
asS'person'
p643
(lp644
I1
aF4.0
asS'coffee shopes'
p645
(lp646
I1
aF4.0
asS'travel'
p647
(lp648
I1
aF4.0
asS'sri laxmi venkateswara coffee bar'
p649
(lp650
I1
aF4.0
asS'localities'
p651
(lp652
I1
aF4.5
asS'dowside'
p653
(lp654
I1
aF3.5
asS'killer'
p655
(lp656
I1
aF4.5
asS'signature dish'
p657
(lp658
I1
aF3.5
asS'price'
p659
(lp660
I3
aF12.5
asS'idli.and'
p661
(lp662
I1
aF4.5
asS'self servicequantity'
p663
(lp664
I1
aF5.0
asS'outlets'
p665
(lp666
I1
aF4.0
asS'mouth'
p667
(lp668
I1
aF3.5
asS'token system'
p669
(lp670
I1
aF4.0
asS'nothing'
p671
(lp672
I2
aF9.0
asS'core'
p673
(lp674
I1
aF4.5
asS'class'
p675
(lp676
I1
aF4.5
asS'butter'
p677
(lp678
I1
aF4.0
asS'bda park'
p679
(lp680
I1
aF5.0
asS'sambhar'
p681
(lp682
I1
aF4.0
asS'everyone'
p683
(lp684
I1
aF5.0
asS'road'
p685
(lp686
I1
aF5.0
asS'enter'
p687
(lp688
I1
aF4.0
asS'food item'
p689
(lp690
I1
aF4.0
asS'blend'
p691
(lp692
I1
aF4.0
asS'order'
p693
(lp694
I2
aF8.5
assS'18278230'
p695
(dp696
S'rating'
p697
(lp698
I1
aF4.0
asS'show'
p699
(lp700
I2
aF3.0
asS'money'
p701
(lp702
I1
aF3.5
asS'stove'
p703
(lp704
I2
aF9.0
asS'mains'
p705
(lp706
I1
aF1.0
asS'mughlai'
p707
(lp708
I1
aF5.0
asS'course'
p709
(lp710
I2
aF9.5
asS'looks'
p711
(lp712
I2
aF7.5
asS'captain'
p713
(lp714
I1
aF5.0
asS'staff'
p715
(lp716
I2
aF4.5
asS'style'
p717
(lp718
I1
aF3.0
asS'steward brijay'
p719
(lp720
I1
aF5.0
asS'stars .service'
p721
(lp722
I1
aF1.0
asS'menu'
p723
(lp724
I2
aF6.5
asS'point'
p725
(lp726
I1
aF3.5
asS'starters'
p727
(lp728
I3
aF9.5
asS'something youd'
p729
(lp730
I1
aF3.0
asS'ambience'
p731
(lp732
I6
aF16.5
asS'rice'
p733
(lp734
I1
aF2.5
asS'presentation'
p735
(lp736
I5
aF17.0
asS'evening'
p737
(lp738
I3
aF8.0
asS'food'
p739
(lp740
I11
aF29.0
asS'noticing'
p741
(lp742
I1
aF3.0
asS'choice'
p743
(lp744
I1
aF1.5
asS'mention'
p745
(lp746
I1
aF3.0
asS'cook'
p747
(lp748
I2
aF9.0
asS'review.service'
p749
(lp750
I1
aF3.5
asS'unique'
p751
(lp752
I1
aF5.0
asS'bread'
p753
(lp754
I1
aF2.0
asS'lucknowi dahi ki shammi'
p755
(lp756
I2
aF7.5
asS'trucks'
p757
(lp758
I1
aF3.5
asS'food starter'
p759
(lp760
I2
aF3.0
asS'team'
p761
(lp762
I1
aF4.5
asS'promise'
p763
(lp764
I2
aF7.5
asS'side'
p765
(lp766
I2
aF9.0
asS'koramangla.they'
p767
(lp768
I1
aF3.5
asS'restaurants'
p769
(lp770
I1
aF5.0
asS'bit pricey'
p771
(lp772
I1
aF4.0
asS'grub'
p773
(lp774
I1
aF5.0
asS'ambiance'
p775
(lp776
I1
aF3.0
asS'chef'
p777
(lp778
I2
aF9.0
asS'flavours'
p779
(lp780
I3
aF7.5
asS'toes'
p781
(lp782
I1
aF3.0
asS'restaurants name'
p783
(lp784
I2
aF3.0
asS'drinks'
p785
(lp786
I1
aF4.0
asS'review'
p787
(lp788
I1
aF4.5
asS'noise'
p789
(lp790
I2
aF5.0
asS'brownie points'
p791
(lp792
I2
aF9.0
asS'utensil'
p793
(lp794
I1
aF2.5
asS'mughlai names'
p795
(lp796
I1
aF5.0
asS'verkha singh\xe2\x80\x99s makkhan paneer'
p797
(lp798
I2
aF9.0
asS'bangalore'
p799
(lp800
I2
aF3.0
asS'hand'
p801
(lp802
I2
aF9.0
asS'change'
p803
(lp804
I1
aF5.0
asS'care'
p805
(lp806
I2
aF9.0
asS'search'
p807
(lp808
I2
aF3.0
asS'anything'
p809
(lp810
I1
aF3.0
asS'restaurant'
p811
(lp812
I4
aF13.0
asS'items'
p813
(lp814
I2
aF6.0
asS'vegetarian'
p815
(lp816
I1
aF2.5
asS'dishes..innovative'
p817
(lp818
I1
aF5.0
asS'experience'
p819
(lp820
I3
aF9.5
asS'steward'
p821
(lp822
I4
aF12.0
asS'bite.everything'
p823
(lp824
I1
aF3.5
asS'thing'
p825
(lp826
I3
aF10.0
asS'place'
p827
(lp828
I3
aF9.5
asS'cousins'
p829
(lp830
I1
aF1.5
asS'options'
p831
(lp832
I1
aF4.5
asS'otherwise'
p833
(lp834
I1
aF1.5
asS'.the ambience'
p835
(lp836
I1
aF2.5
asS'food.soup dal e'
p837
(lp838
I2
aF5.0
asS'deputy'
p839
(lp840
I2
aF9.0
asS'number'
p841
(lp842
I2
aF3.0
asS'raita'
p843
(lp844
I1
aF2.5
asS'repair/rework'
p845
(lp846
I2
aF9.0
asS'sugarcane chicken'
p847
(lp848
I1
aF3.0
asS'quality'
p849
(lp850
I3
aF10.0
asS'restaurant serene'
p851
(lp852
I1
aF4.0
asS'mind blowing'
p853
(lp854
I1
aF3.5
asS'average.'
p855
(lp856
I1
aF1.5
asS'story'
p857
(lp858
I1
aF3.5
asS'service'
p859
(lp860
I2
aF8.0
asS'privacy'
p861
(lp862
I1
aF1.5
asS'vacation'
p863
(lp864
I2
aF9.0
asS'treat'
p865
(lp866
I1
aF3.5
asS'airy'
p867
(lp868
I1
aF5.0
asS'yoghurt'
p869
(lp870
I1
aF2.5
asS'north'
p871
(lp872
I2
aF3.0
asS'butter rotis'
p873
(lp874
I1
aF2.5
asS'hotel'
p875
(lp876
I1
aF2.5
asS'serve'
p877
(lp878
I1
aF2.5
asS'lane'
p879
(lp880
I1
aF5.0
asS'kitchen'
p881
(lp882
I2
aF9.0
asS'folks'
p883
(lp884
I2
aF9.0
asS'part'
p885
(lp886
I1
aF2.5
asS'tamatar vadi ka'
p887
(lp888
I1
aF2.5
asS'challi komi kebab'
p889
(lp890
I1
aF2.5
asS'tarkari wasnt'
p891
(lp892
I1
aF2.5
asS'eyes..'
p893
(lp894
I1
aF4.0
asS'customer'
p895
(lp896
I2
aF5.0
asS'deepchand'
p897
(lp898
I1
aF5.0
asS'flavour'
p899
(lp900
I1
aF2.5
asS'manager mr'
p901
(lp902
I1
aF3.5
asS'interiors'
p903
(lp904
I1
aF5.0
asS'rate'
p905
(lp906
I1
aF1.0
asS'chicken lollipop'
p907
(lp908
I1
aF2.5
asS'preparation'
p909
(lp910
I2
aF5.0
asS'signature starter'
p911
(lp912
I1
aF5.0
asS'neat'
p913
(lp914
I1
aF5.0
asS'zomato'
p915
(lp916
I1
aF4.5
asS'problem'
p917
(lp918
I1
aF1.5
asS'kachumber'
p919
(lp920
I1
aF2.5
asS'taste'
p921
(lp922
I4
aF11.0
asS'ginger'
p923
(lp924
I1
aF2.5
asS'something'
p925
(lp926
I1
aF3.0
asS'concentration'
p927
(lp928
I2
aF5.0
asS'mins'
p929
(lp930
I1
aF1.0
asS'ki shammi'
p931
(lp932
I1
aF2.5
asS'butter chicken'
p933
(lp934
I1
aF1.0
asS'cuisine'
p935
(lp936
I1
aF4.0
asS'food.but sorry'
p937
(lp938
I2
aF5.0
asS'staters'
p939
(lp940
I1
aF2.5
asS'lucknowi dahi'
p941
(lp942
I1
aF2.5
asS'lassi.food'
p943
(lp944
I1
aF3.5
asS'copper/metal'
p945
(lp946
I2
aF3.0
asS'shorba'
p947
(lp948
I1
aF2.5
asS'shammi'
p949
(lp950
I1
aF2.5
asS'gravy'
p951
(lp952
I2
aF7.5
asS'favourite'
p953
(lp954
I1
aF3.5
asS'paneer'
p955
(lp956
I2
aF9.0
asS'daalcha'
p957
(lp958
I1
aF2.5
asS'weekend'
p959
(lp960
I1
aF1.5
asS'booked'
p961
(lp962
I2
aF3.0
asS'attempt'
p963
(lp964
I2
aF9.0
asS'options..'
p965
(lp966
I1
aF3.0
asS'variety'
p967
(lp968
I1
aF3.0
asS'request'
p969
(lp970
I1
aF3.5
asS'drive'
p971
(lp972
I1
aF5.0
asS'face'
p973
(lp974
I2
aF3.0
asS'chicken malai kabab'
p975
(lp976
I1
aF1.0
asS'.ambience :4.5/5service :4.5/5food :3.5/5'
p977
(lp978
I1
aF2.5
asS'presenting'
p979
(lp980
I1
aF4.0
asS'time'
p981
(lp982
I4
aF15.5
asS'notch'
p983
(lp984
I1
aF1.5
asS'deserts'
p985
(lp986
I1
aF4.5
asS'quantity'
p987
(lp988
I3
aF6.5
assS'58786'
p989
(dp990
S'time i'
p991
(lp992
I1
aF4.0
asS'kesariya balam aao ni'
p993
(lp994
I1
aF4.5
asS'money'
p995
(lp996
I1
aF3.5
asS'jp nagar'
p997
(lp998
I1
aF4.5
asS'course'
p999
(lp1000
I4
aF11.5
asS'cuisine restaurant'
p1001
(lp1002
I1
aF5.0
asS'touch'
p1003
(lp1004
I1
aF4.5
asS'whats'
p1005
(lp1006
I1
aF4.5
asS'roots'
p1007
(lp1008
I1
aF3.5
asS'staff'
p1009
(lp1010
I4
aF18.5
asS'chaat'
p1011
(lp1012
I1
aF4.5
asS'deserts'
p1013
(lp1014
I1
aF4.0
asS'cousins'
p1015
(lp1016
I2
aF10.0
asS'appetizers'
p1017
(lp1018
I1
aF1.0
asS'royal'
p1019
(lp1020
I1
aF4.0
asS'channa curry imli juice sweets'
p1021
(lp1022
I1
aF4.5
asS'starters'
p1023
(lp1024
I4
aF16.0
asS'spread'
p1025
(lp1026
I2
aF6.0
asS'ghee'
p1027
(lp1028
I1
aF5.0
asS'ambience'
p1029
(lp1030
I10
aF43.5
asS'.except'
p1031
(lp1032
I1
aF5.0
asS'marwari meals'
p1033
(lp1034
I1
aF5.0
asS'food'
p1035
(lp1036
I12
aF48.0
asS'dessert'
p1037
(lp1038
I1
aF1.0
asS'couple'
p1039
(lp1040
I1
aF4.0
asS'rajasthani cuisine'
p1041
(lp1042
I1
aF4.5
asS'lunch'
p1043
(lp1044
I1
aF5.0
asS'rajasthani style'
p1045
(lp1046
I1
aF5.0
asS'chaat festival'
p1047
(lp1048
I1
aF4.5
asS'background'
p1049
(lp1050
I1
aF4.0
asS'rajasthan'
p1051
(lp1052
I1
aF5.0
asS'ambience.its'
p1053
(lp1054
I1
aF4.5
asS'rabri'
p1055
(lp1056
I1
aF3.5
asS'silver'
p1057
(lp1058
I1
aF1.0
asS'cool'
p1059
(lp1060
I1
aF3.0
asS'dusshera'
p1061
(lp1062
I1
aF4.5
asS'silver plates'
p1063
(lp1064
I2
aF9.5
asS'helpful'
p1065
(lp1066
I1
aF4.5
asS'desserts'
p1067
(lp1068
I1
aF3.0
asS'time visit'
p1069
(lp1070
I1
aF3.5
asS'architecture'
p1071
(lp1072
I1
aF4.0
asS'dal bati'
p1073
(lp1074
I1
aF5.0
asS'soothe.the chats'
p1075
(lp1076
I1
aF4.5
asS'meal'
p1077
(lp1078
I2
aF2.0
asS'restaurants'
p1079
(lp1080
I1
aF5.0
asS'everyone'
p1081
(lp1082
I1
aF4.5
asS'people'
p1083
(lp1084
I1
aF3.0
asS'rajathani cuisine'
p1085
(lp1086
I1
aF2.5
asS'ambiance'
p1087
(lp1088
I2
aF7.5
asS'kulfi'
p1089
(lp1090
I1
aF4.5
asS'rate'
p1091
(lp1092
I1
aF3.0
asS'chaat section'
p1093
(lp1094
I1
aF4.5
asS'home'
p1095
(lp1096
I1
aF5.0
asS'drinks'
p1097
(lp1098
I1
aF4.0
asS'doll display'
p1099
(lp1100
I1
aF4.5
asS'lots'
p1101
(lp1102
I1
aF4.0
asS'everything'
p1103
(lp1104
I2
aF9.5
asS'more.food'
p1105
(lp1106
I1
aF4.5
asS'loves'
p1107
(lp1108
I1
aF4.5
asS'paradise'
p1109
(lp1110
I1
aF4.5
asS'good.starters'
p1111
(lp1112
I1
aF5.0
asS'rajasthani song'
p1113
(lp1114
I1
aF4.0
asS'family gathering'
p1115
(lp1116
I1
aF1.0
asS'thali'
p1117
(lp1118
I3
aF10.0
asS'taste buds'
p1119
(lp1120
I1
aF5.0
asS'pure vegetarian'
p1121
(lp1122
I1
aF3.0
asS'cockroach'
p1123
(lp1124
I1
aF4.0
asS'hours'
p1125
(lp1126
I1
aF3.5
asS'buffet'
p1127
(lp1128
I1
aF5.0
asS'chaats'
p1129
(lp1130
I1
aF4.5
asS'silver thalis'
p1131
(lp1132
I1
aF4.5
asS'consideration'
p1133
(lp1134
I1
aF4.5
asS'bangalore'
p1135
(lp1136
I1
aF5.0
asS'kitchen'
p1137
(lp1138
I1
aF3.5
asS'restaurant'
p1139
(lp1140
I2
aF5.0
asS'items'
p1141
(lp1142
I1
aF3.0
asS'house'
p1143
(lp1144
I1
aF4.5
asS'experience'
p1145
(lp1146
I5
aF19.5
asS'times'
p1147
(lp1148
I1
aF5.0
asS'thing'
p1149
(lp1150
I1
aF4.5
asS'delicacies'
p1151
(lp1152
I1
aF5.0
asS'place'
p1153
(lp1154
I10
aF37.0
asS'weekday'
p1155
(lp1156
I1
aF5.0
asS'menu'
p1157
(lp1158
I2
aF10.0
asS'family lunch'
p1159
(lp1160
I1
aF3.5
asS'rajasthani'
p1161
(lp1162
I1
aF4.0
asS'dal bhati'
p1163
(lp1164
I1
aF4.0
asS'negatives'
p1165
(lp1166
I1
aF4.5
asS'papdi chaat'
p1167
(lp1168
I1
aF4.5
asS'varieties.ambience'
p1169
(lp1170
I1
aF4.5
asS'family'
p1171
(lp1172
I4
aF13.5
asS'sweet'
p1173
(lp1174
I1
aF5.0
asS'servers'
p1175
(lp1176
I1
aF4.5
asS'mark'
p1177
(lp1178
I1
aF3.5
asS'flavors'
p1179
(lp1180
I1
aF5.0
asS'\xf0\x9f\x91\x91'
p1181
(lp1182
I1
aF4.5
asS'jam packed'
p1183
(lp1184
I1
aF4.5
asS'service'
p1185
(lp1186
I7
aF29.0
asS'friends'
p1187
(lp1188
I2
aF5.5
asS'visit'
p1189
(lp1190
I1
aF4.5
asS'jalebi'
p1191
(lp1192
I1
aF3.5
asS'anyone'
p1193
(lp1194
I1
aF3.5
asS'cousin\xe2\x80\x99s reunion'
p1195
(lp1196
I1
aF5.0
asS'aloo tikki chaat'
p1197
(lp1198
I1
aF4.5
asS'everythings'
p1199
(lp1200
I1
aF4.0
asS'tangy'
p1201
(lp1202
I1
aF5.0
asS'chats'
p1203
(lp1204
I1
aF4.5
asS'head'
p1205
(lp1206
I1
aF4.5
asS'spicy'
p1207
(lp1208
I1
aF5.0
asS'stomach'
p1209
(lp1210
I1
aF5.0
asS'quantities'
p1211
(lp1212
I1
aF5.0
asS'drawback today'
p1213
(lp1214
I1
aF4.5
asS'silver platter'
p1215
(lp1216
I1
aF5.0
asS'kesar aroma'
p1217
(lp1218
I1
aF4.5
asS'grace'
p1219
(lp1220
I1
aF3.5
asS'jalebi rasmalai'
p1221
(lp1222
I1
aF5.0
asS'customer'
p1223
(lp1224
I1
aF4.0
asS'king'
p1225
(lp1226
I1
aF1.0
asS'made'
p1227
(lp1228
I1
aF5.0
asS'salad'
p1229
(lp1230
I1
aF4.5
asS'rajasthan feeling'
p1231
(lp1232
I1
aF4.0
asS'interiors'
p1233
(lp1234
I1
aF4.5
asS'kesariya restaurant'
p1235
(lp1236
I1
aF5.0
asS'rajdhani food'
p1237
(lp1238
I1
aF5.0
asS'zomato'
p1239
(lp1240
I2
aF9.0
asS'spice levels'
p1241
(lp1242
I1
aF4.0
asS'padharo mhare des'
p1243
(lp1244
I1
aF4.5
asS'heart'
p1245
(lp1246
I1
aF5.0
asS'soothing place'
p1247
(lp1248
I1
aF4.0
asS'snacks'
p1249
(lp1250
I1
aF1.0
asS'taste'
p1251
(lp1252
I4
aF19.5
asS'variety.i'
p1253
(lp1254
I1
aF4.5
asS'favoriteee dal bhati churma'
p1255
(lp1256
I1
aF4.5
asS'shame'
p1257
(lp1258
I1
aF4.0
asS'something'
p1259
(lp1260
I1
aF5.0
asS'n clam ambiance'
p1261
(lp1262
I1
aF4.0
asS'cuisine'
p1263
(lp1264
I1
aF4.5
asS'decor'
p1265
(lp1266
I1
aF5.0
asS'dishes'
p1267
(lp1268
I4
aF15.0
asS'variety'
p1269
(lp1270
I3
aF6.0
asS'getaway memory'
p1271
(lp1272
I1
aF5.0
asS'bowl'
p1273
(lp1274
I1
aF5.0
asS'dinner'
p1275
(lp1276
I2
aF8.5
asS'sunday'
p1277
(lp1278
I1
aF3.5
asS'dish name'
p1279
(lp1280
I1
aF4.5
asS'biryani'
p1281
(lp1282
I1
aF4.5
asS'week'
p1283
(lp1284
I1
aF5.0
asS'experience.the food'
p1285
(lp1286
I1
aF4.5
asS'drink'
p1287
(lp1288
I1
aF1.0
asS'outlets'
p1289
(lp1290
I1
aF5.0
asS'visits'
p1291
(lp1292
I1
aF5.0
asS'delight'
p1293
(lp1294
I1
aF3.0
asS'chance'
p1295
(lp1296
I1
aF4.5
asS'occasion'
p1297
(lp1298
I1
aF4.5
asS'jp nagar bangalore'
p1299
(lp1300
I1
aF5.0
asS'meals'
p1301
(lp1302
I1
aF4.0
asS'chutney baby corn pakoda'
p1303
(lp1304
I1
aF4.5
asS'building'
p1305
(lp1306
I1
aF4.5
asS'varieties'
p1307
(lp1308
I2
aF10.0
asS'photos'
p1309
(lp1310
I1
aF3.5
asS'counter'
p1311
(lp1312
I1
aF4.0
asS'kesariya'
p1313
(lp1314
I3
aF9.5
asS'chutneys'
p1315
(lp1316
I1
aF4.5
asS'time'
p1317
(lp1318
I2
aF9.0
asS'pleasure'
p1319
(lp1320
I1
aF5.0
asS'fact'
p1321
(lp1322
I1
aF5.0
asS'family members'
p1323
(lp1324
I1
aF1.0
assS'58698'
p1325
(dp1326
S'palm sugar ice cream'
p1327
(lp1328
I1
aF4.0
asS'selection'
p1329
(lp1330
I2
aF8.0
asS'bomb'
p1331
(lp1332
I1
aF5.0
asS'chain'
p1333
(lp1334
I1
aF4.0
asS'money'
p1335
(lp1336
I2
aF9.5
asS'mains'
p1337
(lp1338
I1
aF3.5
asS'palm sugar icecream'
p1339
(lp1340
I2
aF8.0
asS'course'
p1341
(lp1342
I4
aF17.0
asS'crispy lotus stem'
p1343
(lp1344
I1
aF4.0
asS'dish'
p1345
(lp1346
I4
aF17.0
asS'oriental food destination'
p1347
(lp1348
I1
aF4.5
asS'chicken'
p1349
(lp1350
I4
aF18.0
asS'calamari'
p1351
(lp1352
I2
aF9.0
asS'milk'
p1353
(lp1354
I2
aF8.0
asS'staff'
p1355
(lp1356
I4
aF17.0
asS'honey chicken'
p1357
(lp1358
I2
aF9.0
asS'sweety'
p1359
(lp1360
I2
aF9.0
asS'office'
p1361
(lp1362
I1
aF5.0
asS'hearty portions'
p1363
(lp1364
I1
aF5.0
asS'justice'
p1365
(lp1366
I2
aF8.5
asS'menu'
p1367
(lp1368
I1
aF4.0
asS'reviews'
p1369
(lp1370
I1
aF4.0
asS'bbq dip'
p1371
(lp1372
I2
aF8.5
asS'texture'
p1373
(lp1374
I2
aF8.0
asS'starters'
p1375
(lp1376
I5
aF20.5
asS'wall'
p1377
(lp1378
I2
aF9.0
asS'location'
p1379
(lp1380
I1
aF3.0
asS'matters'
p1381
(lp1382
I1
aF4.5
asS'ramen bowl'
p1383
(lp1384
I1
aF3.5
asS'ambience'
p1385
(lp1386
I9
aF37.0
asS'rice'
p1387
(lp1388
I3
aF13.0
asS'presentation'
p1389
(lp1390
I1
aF4.5
asS'waiters'
p1391
(lp1392
I1
aF5.0
asS'eateries'
p1393
(lp1394
I1
aF3.0
asS'pad thai'
p1395
(lp1396
I1
aF4.5
asS'food'
p1397
(lp1398
I16
aF71.0
asS'couple'
p1399
(lp1400
I1
aF3.0
asS'choice'
p1401
(lp1402
I3
aF13.0
asS'warehouse'
p1403
(lp1404
I3
aF14.0
asS'noodlesdeserts'
p1405
(lp1406
I2
aF9.0
asS'batter'
p1407
(lp1408
I2
aF9.0
asS'outlet'
p1409
(lp1410
I2
aF9.0
asS'chicken satay'
p1411
(lp1412
I2
aF6.5
asS'world'
p1413
(lp1414
I2
aF8.0
asS'cuisine taste'
p1415
(lp1416
I2
aF9.0
asS'crystal dumplingsmain courses'
p1417
(lp1418
I2
aF9.0
asS'oriental i'
p1419
(lp1420
I1
aF5.0
asS'magic'
p1421
(lp1422
I1
aF3.5
asS'name'
p1423
(lp1424
I1
aF4.5
asS'.the price'
p1425
(lp1426
I1
aF4.5
asS'level'
p1427
(lp1428
I1
aF4.5
asS'veg pan'
p1429
(lp1430
I2
aF9.0
asS'serves'
p1431
(lp1432
I1
aF5.0
asS'item'
p1433
(lp1434
I1
aF4.0
asS'activity'
p1435
(lp1436
I1
aF4.5
asS'eating.food'
p1437
(lp1438
I1
aF4.5
asS'meal'
p1439
(lp1440
I2
aF8.0
asS'restaurants'
p1441
(lp1442
I1
aF4.0
asS'pork'
p1443
(lp1444
I5
aF22.0
asS'everyone'
p1445
(lp1446
I1
aF4.0
asS'mamagoto'
p1447
(lp1448
I1
aF4.5
asS'people'
p1449
(lp1450
I6
aF26.0
asS'list'
p1451
(lp1452
I1
aF4.5
asS'fish'
p1453
(lp1454
I1
aF4.5
asS'streets'
p1455
(lp1456
I2
aF9.0
asS'competition'
p1457
(lp1458
I1
aF4.5
asS'blend i'
p1459
(lp1460
I2
aF9.0
asS'shrimp friedrice'
p1461
(lp1462
I1
aF4.5
asS'rate'
p1463
(lp1464
I2
aF9.0
asS'havent eaten'
p1465
(lp1466
I1
aF4.5
asS'authenticity'
p1467
(lp1468
I1
aF4.5
asS'tender'
p1469
(lp1470
I4
aF18.0
asS'noodles'
p1471
(lp1472
I2
aF7.5
asS'corn pepper salt'
p1473
(lp1474
I1
aF4.5
asS'lemongrass'
p1475
(lp1476
I2
aF8.0
asS'handmade coconut'
p1477
(lp1478
I2
aF8.0
asS'matter'
p1479
(lp1480
I1
aF4.5
asS'lots'
p1481
(lp1482
I1
aF4.0
asS'speed'
p1483
(lp1484
I2
aF6.5
asS'review'
p1485
(lp1486
I2
aF9.5
asS'hakka noodles'
p1487
(lp1488
I1
aF4.0
asS'food didnt pack'
p1489
(lp1490
I1
aF5.0
asS'flavor bomb'
p1491
(lp1492
I1
aF5.0
asS'ordinary.pros'
p1493
(lp1494
I1
aF5.0
asS'side'
p1495
(lp1496
I3
aF13.5
asS'body'
p1497
(lp1498
I2
aF8.0
asS'mustgo'
p1499
(lp1500
I1
aF4.5
asS'flavours'
p1501
(lp1502
I1
aF4.5
asS'possibility'
p1503
(lp1504
I1
aF4.5
asS'smacking'
p1505
(lp1506
I1
aF4.5
asS'satay'
p1507
(lp1508
I1
aF3.5
asS'china'
p1509
(lp1510
I1
aF5.0
asS'cousin'
p1511
(lp1512
I1
aF4.5
asS'bangalore'
p1513
(lp1514
I1
aF4.5
asS'starters.and spicy'
p1515
(lp1516
I1
aF3.5
asS'delhi ncr'
p1517
(lp1518
I2
aF9.0
asS'anything'
p1519
(lp1520
I1
aF3.5
asS'waiter'
p1521
(lp1522
I2
aF7.5
asS'items'
p1523
(lp1524
I1
aF5.0
asS'home delivery'
p1525
(lp1526
I1
aF4.5
asS'chicken basil cups'
p1527
(lp1528
I1
aF3.5
asS'experience'
p1529
(lp1530
I5
aF20.5
asS'ambiance isnt'
p1531
(lp1532
I1
aF4.0
asS'players'
p1533
(lp1534
I1
aF3.5
asS'dinner'
p1535
(lp1536
I3
aF13.5
asS'heck'
p1537
(lp1538
I2
aF9.0
asS'patrons'
p1539
(lp1540
I1
aF4.5
asS'afternoon'
p1541
(lp1542
I2
aF9.0
asS'flavour'
p1543
(lp1544
I2
aF8.5
asS'opinion'
p1545
(lp1546
I1
aF4.0
asS'cheese'
p1547
(lp1548
I2
aF9.0
asS'soya sauce'
p1549
(lp1550
I2
aF9.0
asS'love'
p1551
(lp1552
I2
aF8.0
asS'plenty'
p1553
(lp1554
I1
aF4.5
asS'family'
p1555
(lp1556
I1
aF4.0
asS'feel'
p1557
(lp1558
I2
aF9.0
asS'orderedstarters'
p1559
(lp1560
I2
aF9.0
asS'servers'
p1561
(lp1562
I1
aF4.0
asS'packaging'
p1563
(lp1564
I1
aF4.5
asS'broth.we'
p1565
(lp1566
I2
aF8.0
asS'table'
p1567
(lp1568
I1
aF4.5
asS'quality'
p1569
(lp1570
I4
aF16.5
asS'station chicken bowl'
p1571
(lp1572
I2
aF9.0
asS'flavors'
p1573
(lp1574
I1
aF4.0
asS'city'
p1575
(lp1576
I1
aF4.5
asS'choice list'
p1577
(lp1578
I1
aF4.5
asS'portion2'
p1579
(lp1580
I1
aF5.0
asS'service'
p1581
(lp1582
I4
aF18.0
asS'spinach'
p1583
(lp1584
I1
aF4.5
asS'rice didnt'
p1585
(lp1586
I1
aF4.5
asS'weekend'
p1587
(lp1588
I1
aF3.5
asS'visit'
p1589
(lp1590
I2
aF9.0
asS'curries'
p1591
(lp1592
I1
aF4.5
asS'mark'
p1593
(lp1594
I1
aF4.0
asS'dumplings'
p1595
(lp1596
I3
aF13.0
asS'posters'
p1597
(lp1598
I2
aF9.0
asS'hotel room..'
p1599
(lp1600
I1
aF4.5
asS'music'
p1601
(lp1602
I1
aF4.0
asS'musiccons:1.'
p1603
(lp1604
I1
aF5.0
asS'basil'
p1605
(lp1606
I1
aF4.5
asS'creams'
p1607
(lp1608
I1
aF4.0
asS'spiciness'
p1609
(lp1610
I2
aF9.0
asS'friend'
p1611
(lp1612
I2
aF9.0
asS'food places'
p1613
(lp1614
I1
aF4.0
asS'head'
p1615
(lp1616
I1
aF4.5
asS'skewers'
p1617
(lp1618
I2
aF9.0
asS'benchmark'
p1619
(lp1620
I1
aF3.5
asS'delivery'
p1621
(lp1622
I1
aF4.5
asS'prawn crackers'
p1623
(lp1624
I1
aF4.5
asS'prawn soup'
p1625
(lp1626
I2
aF8.0
asS'prices'
p1627
(lp1628
I1
aF5.0
asS'\xf0\x9f\x98\x82'
p1629
(lp1630
I1
aF4.5
asS'thai'
p1631
(lp1632
I1
aF4.5
asS'exception'
p1633
(lp1634
I1
aF3.5
asS'food tastes'
p1635
(lp1636
I1
aF4.5
asS'welcoming'
p1637
(lp1638
I1
aF4.0
asS'places'
p1639
(lp1640
I7
aF30.5
asS'sauce'
p1641
(lp1642
I2
aF9.0
asS'interiors'
p1643
(lp1644
I1
aF4.5
asS'bill'
p1645
(lp1646
I1
aF4.0
asS'oil dumplings'
p1647
(lp1648
I2
aF9.0
asS'veg spring roles'
p1649
(lp1650
I2
aF9.0
asS'value'
p1651
(lp1652
I1
aF4.5
asS'portion size'
p1653
(lp1654
I2
aF8.0
asS'soup'
p1655
(lp1656
I2
aF8.0
asS'rice bowls'
p1657
(lp1658
I2
aF9.0
asS'reason i'
p1659
(lp1660
I1
aF4.5
asS'zomato'
p1661
(lp1662
I1
aF4.5
asS'china.i'
p1663
(lp1664
I1
aF5.0
asS'crackers'
p1665
(lp1666
I1
aF3.5
asS'mistake'
p1667
(lp1668
I1
aF4.0
asS'heart'
p1669
(lp1670
I1
aF4.5
asS'coconut'
p1671
(lp1672
I1
aF4.0
asS'ambience too.. fabulous..very prompt'
p1673
(lp1674
I1
aF4.5
asS'taste'
p1675
(lp1676
I2
aF8.0
asS'venila ice cream'
p1677
(lp1678
I2
aF9.0
asS'penny'
p1679
(lp1680
I1
aF4.5
asS'juicy'
p1681
(lp1682
I2
aF9.0
asS'ginger'
p1683
(lp1684
I2
aF8.0
asS'honey'
p1685
(lp1686
I2
aF9.0
asS'friends house'
p1687
(lp1688
I1
aF4.5
asS'arrangements'
p1689
(lp1690
I1
aF4.0
asS'food guys'
p1691
(lp1692
I1
aF4.5
asS'money.we'
p1693
(lp1694
I2
aF8.0
asS'times'
p1695
(lp1696
I2
aF7.0
asS'corns'
p1697
(lp1698
I1
aF4.5
asS'fame'
p1699
(lp1700
I2
aF9.0
asS'lamb'
p1701
(lp1702
I1
aF4.5
asS'ratings'
p1703
(lp1704
I2
aF8.0
asS'decor'
p1705
(lp1706
I1
aF5.0
asS'wholesome'
p1707
(lp1708
I2
aF8.0
asS'sum fan'
p1709
(lp1710
I1
aF4.5
asS'variety'
p1711
(lp1712
I3
aF12.5
asS'indiranagar'
p1713
(lp1714
I3
aF13.0
asS'ramen bowls'
p1715
(lp1716
I1
aF5.0
asS'amazing'
p1717
(lp1718
I1
aF3.0
asS'restaurant till date..i'
p1719
(lp1720
I1
aF4.5
asS'interior'
p1721
(lp1722
I2
aF7.0
asS'place'
p1723
(lp1724
I19
aF82.5
asS'drinks'
p1725
(lp1726
I1
aF4.5
asS'que.food i'
p1727
(lp1728
I1
aF4.5
asS'start'
p1729
(lp1730
I1
aF3.5
asS'caramel toffee'
p1731
(lp1732
I2
aF9.0
asS'prawn dumplings'
p1733
(lp1734
I1
aF4.5
asS'cuisine'
p1735
(lp1736
I2
aF9.0
asS'price'
p1737
(lp1738
I2
aF9.0
asS'felt'
p1739
(lp1740
I1
aF4.5
asS'hand'
p1741
(lp1742
I2
aF8.0
asS'moment'
p1743
(lp1744
I1
aF4.5
asS'plan'
p1745
(lp1746
I1
aF3.5
asS'favorites'
p1747
(lp1748
I4
aF17.0
asS'nothing'
p1749
(lp1750
I1
aF4.5
asS'reservation'
p1751
(lp1752
I1
aF4.5
asS'friends'
p1753
(lp1754
I3
aF13.0
asS'class'
p1755
(lp1756
I1
aF4.0
asS'achievement'
p1757
(lp1758
I1
aF4.5
asS'apple cinnamon sangria'
p1759
(lp1760
I1
aF4.5
asS'bengali im'
p1761
(lp1762
I1
aF4.5
asS'lunch'
p1763
(lp1764
I1
aF5.0
asS'yummmmy'
p1765
(lp1766
I1
aF4.5
asS'soups'
p1767
(lp1768
I1
aF3.5
asS'thai food'
p1769
(lp1770
I2
aF9.0
asS'agenda'
p1771
(lp1772
I1
aF4.5
asS'time'
p1773
(lp1774
I4
aF16.5
asS'liquor options'
p1775
(lp1776
I1
aF4.5
asS'everything'
p1777
(lp1778
I1
aF5.0
asS'order'
p1779
(lp1780
I2
aF9.0
asS'fact'
p1781
(lp1782
I2
aF8.0
asS'quantity'
p1783
(lp1784
I2
aF9.0
assS'18375545'
p1785
(dp1786
S'shop'
p1787
(lp1788
I2
aF6.0
asS'concept'
p1789
(lp1790
I1
aF5.0
asS'chutney tastes'
p1791
(lp1792
I1
aF4.0
asS'dosa'
p1793
(lp1794
I3
aF12.5
asS'souls'
p1795
(lp1796
I1
aF5.0
asS'rest'
p1797
(lp1798
I1
aF4.5
asS'aroma'
p1799
(lp1800
I1
aF4.5
asS'dish'
p1801
(lp1802
I1
aF4.0
asS'pickle dosa'
p1803
(lp1804
I3
aF13.0
asS'bunch'
p1805
(lp1806
I2
aF9.0
asS'yummy'
p1807
(lp1808
I1
aF4.5
asS'blowing masala dosa'
p1809
(lp1810
I1
aF4.5
asS'order anything'
p1811
(lp1812
I1
aF4.5
asS'menu'
p1813
(lp1814
I5
aF19.0
asS'outlet crispy vada'
p1815
(lp1816
I1
aF4.5
asS'easy'
p1817
(lp1818
I1
aF5.0
asS'ghee'
p1819
(lp1820
I3
aF13.0
asS'folks'
p1821
(lp1822
I2
aF6.0
asS'sent'
p1823
(lp1824
I1
aF5.0
asS'plate'
p1825
(lp1826
I2
aF6.0
asS'coffee'
p1827
(lp1828
I9
aF38.0
asS'food'
p1829
(lp1830
I6
aF24.5
asS'darshini style places'
p1831
(lp1832
I2
aF6.0
asS'pocket'
p1833
(lp1834
I1
aF5.0
asS'ghee upma'
p1835
(lp1836
I3
aF10.0
asS'boxes'
p1837
(lp1838
I2
aF6.0
asS'yourselves'
p1839
(lp1840
I1
aF4.5
asS'chutney'
p1841
(lp1842
I3
aF14.5
asS'advent'
p1843
(lp1844
I2
aF6.0
asS'morning'
p1845
(lp1846
I1
aF4.5
asS'stuff'
p1847
(lp1848
I1
aF5.0
asS'fig halwa'
p1849
(lp1850
I1
aF4.0
asS'coffee place'
p1851
(lp1852
I2
aF7.5
asS'house food'
p1853
(lp1854
I1
aF5.0
asS'bel road area'
p1855
(lp1856
I2
aF6.0
asS'style places'
p1857
(lp1858
I2
aF6.0
asS'outlet name labeled.chutney'
p1859
(lp1860
I2
aF6.0
asS'replication'
p1861
(lp1862
I1
aF5.0
asS'people'
p1863
(lp1864
I2
aF8.0
asS'competition'
p1865
(lp1866
I2
aF6.0
asS'street'
p1867
(lp1868
I1
aF3.0
asS'pricing'
p1869
(lp1870
I1
aF5.0
asS'parking'
p1871
(lp1872
I1
aF3.0
asS'idlis'
p1873
(lp1874
I1
aF4.5
asS'home'
p1875
(lp1876
I2
aF6.0
asS'vada'
p1877
(lp1878
I3
aF11.0
asS'quality'
p1879
(lp1880
I1
aF4.5
asS'forte'
p1881
(lp1882
I1
aF4.5
asS'entrant'
p1883
(lp1884
I2
aF6.0
asS'sanjaynagar'
p1885
(lp1886
I3
aF14.0
asS'something i'
p1887
(lp1888
I1
aF4.5
asS'idlys'
p1889
(lp1890
I1
aF3.0
asS'lite food'
p1891
(lp1892
I1
aF5.0
asS'packing'
p1893
(lp1894
I2
aF6.0
asS'bangalore'
p1895
(lp1896
I2
aF8.5
asS'pickle dosa wah'
p1897
(lp1898
I1
aF4.5
asS'hills'
p1899
(lp1900
I1
aF4.5
asS'restaurant'
p1901
(lp1902
I2
aF10.0
asS'takeaway.they'
p1903
(lp1904
I2
aF6.0
asS'experience'
p1905
(lp1906
I2
aF10.0
asS'meal'
p1907
(lp1908
I1
aF4.0
asS'amount'
p1909
(lp1910
I1
aF4.0
asS'place'
p1911
(lp1912
I9
aF39.0
asS'stand'
p1913
(lp1914
I2
aF6.0
asS'soda'
p1915
(lp1916
I1
aF5.0
asS'options'
p1917
(lp1918
I2
aF6.0
asS'south'
p1919
(lp1920
I2
aF9.5
asS'thats'
p1921
(lp1922
I1
aF4.5
asS'vadas'
p1923
(lp1924
I1
aF4.5
asS'dont'
p1925
(lp1926
I2
aF9.0
asS'bangalore days'
p1927
(lp1928
I1
aF4.5
asS'youd'
p1929
(lp1930
I1
aF4.0
asS'bath'
p1931
(lp1932
I2
aF8.5
asS'pongal'
p1933
(lp1934
I2
aF6.0
asS'crispy'
p1935
(lp1936
I1
aF4.5
asS'flavors'
p1937
(lp1938
I1
aF3.0
asS'halwa'
p1939
(lp1940
I3
aF14.0
asS'service'
p1941
(lp1942
I2
aF8.0
asS'area'
p1943
(lp1944
I1
aF3.0
asS'morning i'
p1945
(lp1946
I2
aF6.0
asS'road side'
p1947
(lp1948
I2
aF6.0
asS'darshinis'
p1949
(lp1950
I2
aF8.0
asS'thrice'
p1951
(lp1952
I1
aF5.0
asS'head'
p1953
(lp1954
I1
aF5.0
asS'spicy'
p1955
(lp1956
I1
aF5.0
asS'option'
p1957
(lp1958
I2
aF6.0
asS'packs'
p1959
(lp1960
I2
aF6.0
asS'bel road'
p1961
(lp1962
I1
aF4.0
asS'park'
p1963
(lp1964
I1
aF3.0
asS'softest'
p1965
(lp1966
I1
aF5.0
asS'ambience'
p1967
(lp1968
I1
aF3.0
asS'part'
p1969
(lp1970
I1
aF5.0
asS'nagar'
p1971
(lp1972
I1
aF4.0
asS'masala dosa'
p1973
(lp1974
I1
aF5.0
asS'portions'
p1975
(lp1976
I1
aF5.0
asS'places'
p1977
(lp1978
I2
aF6.0
asS'wish'
p1979
(lp1980
I1
aF4.5
asS'coffee outlet'
p1981
(lp1982
I1
aF3.0
asS'zomato'
p1983
(lp1984
I1
aF3.0
asS'highlight'
p1985
(lp1986
I1
aF4.5
asS'problem'
p1987
(lp1988
I1
aF3.0
asS'pickle'
p1989
(lp1990
I1
aF4.5
asS'coffee bar'
p1991
(lp1992
I1
aF4.0
asS'sambar'
p1993
(lp1994
I2
aF6.0
asS'bite place'
p1995
(lp1996
I1
aF5.0
asS'taste'
p1997
(lp1998
I3
aF10.0
asS'chai'
p1999
(lp2000
I1
aF5.0
asS'mind'
p2001
(lp2002
I1
aF4.5
asS'mine'
p2003
(lp2004
I2
aF6.0
asS'brahmins'
p2005
(lp2006
I2
aF7.0
asS'jayanagar'
p2007
(lp2008
I2
aF9.5
asS'breakfast'
p2009
(lp2010
I3
aF11.0
asS'dosas'
p2011
(lp2012
I4
aF15.0
asS'upma'
p2013
(lp2014
I2
aF7.5
asS'filter coffee'
p2015
(lp2016
I2
aF8.5
asS'matches'
p2017
(lp2018
I1
aF4.0
asS'amazing'
p2019
(lp2020
I1
aF4.5
asS'paddu'
p2021
(lp2022
I2
aF9.5
asS'branch'
p2023
(lp2024
I1
aF4.5
asS'mouth watering'
p2025
(lp2026
I1
aF4.5
asS'kinds'
p2027
(lp2028
I1
aF5.0
asS'hand.this outlet'
p2029
(lp2030
I2
aF6.0
asS'price'
p2031
(lp2032
I1
aF3.0
asS'anjur halwa'
p2033
(lp2034
I1
aF4.0
asS'idly/vada.one drawback'
p2035
(lp2036
I2
aF6.0
asS'favorites'
p2037
(lp2038
I1
aF4.0
asS'chettys food'
p2039
(lp2040
I1
aF5.0
asS'friends'
p2041
(lp2042
I1
aF4.0
asS'darshinis..'
p2043
(lp2044
I1
aF4.0
asS'joint'
p2045
(lp2046
I1
aF4.5
asS'youre'
p2047
(lp2048
I1
aF5.0
asS'quantity'
p2049
(lp2050
I1
aF4.5
assS'61111'
p2051
(dp2052
S'rating'
p2053
(lp2054
I2
aF10.0
asS'concept'
p2055
(lp2056
I1
aF4.5
asS'truffle icecream'
p2057
(lp2058
I1
aF5.0
asS'money'
p2059
(lp2060
I3
aF13.5
asS'bangalore ..'
p2061
(lp2062
I1
aF4.0
asS'truffle ice cream'
p2063
(lp2064
I1
aF5.0
asS'icecreams'
p2065
(lp2066
I1
aF2.5
asS'thanks'
p2067
(lp2068
I1
aF4.0
asS'flavor'
p2069
(lp2070
I1
aF4.0
asS'milk'
p2071
(lp2072
I1
aF5.0
asS'staff'
p2073
(lp2074
I1
aF5.0
asS'perfect'
p2075
(lp2076
I1
aF5.0
asS'apple sorbet'
p2077
(lp2078
I1
aF5.0
asS'mother'
p2079
(lp2080
I1
aF4.5
asS'menu'
p2081
(lp2082
I1
aF5.0
asS'amazing'
p2083
(lp2084
I1
aF2.5
asS'sugar'
p2085
(lp2086
I1
aF4.5
asS'voila'
p2087
(lp2088
I2
aF8.5
asS'combo'
p2089
(lp2090
I1
aF4.0
asS'orange'
p2091
(lp2092
I1
aF4.5
asS'hints'
p2093
(lp2094
I2
aF9.5
asS'ice cream parlour'
p2095
(lp2096
I1
aF4.5
asS'coffee'
p2097
(lp2098
I2
aF9.5
asS'weve'
p2099
(lp2100
I1
aF4.5
asS'branch'
p2101
(lp2102
I1
aF5.0
asS'ice cream i'
p2103
(lp2104
I1
aF5.0
asS'scoops..'
p2105
(lp2106
I1
aF4.5
asS'pocket'
p2107
(lp2108
I1
aF4.5
asS'ones'
p2109
(lp2110
I1
aF4.5
asS'notch gelato'
p2111
(lp2112
I1
aF5.0
asS'words'
p2113
(lp2114
I1
aF4.5
asS'flavour'
p2115
(lp2116
I2
aF8.5
asS'orange cheesecake gelato'
p2117
(lp2118
I2
aF9.5
asS'meat'
p2119
(lp2120
I1
aF4.5
asS'list'
p2121
(lp2122
I1
aF5.0
asS'brother'
p2123
(lp2124
I1
aF4.5
asS'taxes'
p2125
(lp2126
I1
aF4.5
asS'filling'
p2127
(lp2128
I1
aF5.0
asS'kochi milano'
p2129
(lp2130
I1
aF5.0
asS'platter consisiting'
p2131
(lp2132
I2
aF8.5
asS'family.i'
p2133
(lp2134
I2
aF8.5
asS'cones'
p2135
(lp2136
I1
aF4.5
asS'people'
p2137
(lp2138
I1
aF5.0
asS'sorbet'
p2139
(lp2140
I2
aF9.5
asS'ambiance'
p2141
(lp2142
I2
aF10.0
asS'mascarpone cheese'
p2143
(lp2144
I1
aF4.5
asS'flavours'
p2145
(lp2146
I12
aF53.5
asS'sorbets'
p2147
(lp2148
I1
aF5.0
asS'pricing'
p2149
(lp2150
I2
aF9.5
asS'parking'
p2151
(lp2152
I1
aF4.5
asS'ice cream'
p2153
(lp2154
I9
aF42.0
asS'crepe rather..'
p2155
(lp2156
I1
aF2.5
asS'gosh'
p2157
(lp2158
I1
aF5.0
asS'ways'
p2159
(lp2160
I1
aF5.0
asS'scoops'
p2161
(lp2162
I5
aF20.5
asS'review'
p2163
(lp2164
I2
aF8.5
asS'nutella'
p2165
(lp2166
I1
aF2.5
asS'mascarpone cream cheese'
p2167
(lp2168
I2
aF9.5
asS'rounds'
p2169
(lp2170
I1
aF4.0
asS'tiramisu'
p2171
(lp2172
I3
aF13.5
asS'everything'
p2173
(lp2174
I1
aF4.5
asS'chocolate sundae'
p2175
(lp2176
I1
aF5.0
asS'town yesterday'
p2177
(lp2178
I1
aF5.0
asS'pantaloons showroom'
p2179
(lp2180
I1
aF5.0
asS'truffle'
p2181
(lp2182
I1
aF2.5
asS'fort kochi'
p2183
(lp2184
I1
aF5.0
asS'cravings'
p2185
(lp2186
I1
aF5.0
asS'scopes'
p2187
(lp2188
I1
aF4.0
asS'cozy lil corner'
p2189
(lp2190
I1
aF5.0
asS'years.was'
p2191
(lp2192
I1
aF5.0
asS'jasmine'
p2193
(lp2194
I1
aF5.0
asS'class quality'
p2195
(lp2196
I1
aF5.0
asS'excellentambiance'
p2197
(lp2198
I1
aF5.0
asS'\xe2\x9d\xa4\xef\xb8\x8f'
p2199
(lp2200
I1
aF4.5
asS'flavours.the smoothness'
p2201
(lp2202
I1
aF4.5
asS'bangalore'
p2203
(lp2204
I6
aF27.0
asS'decadent ice creams'
p2205
(lp2206
I1
aF4.0
asS'place \xf0\x9f\x98\x8a'
p2207
(lp2208
I1
aF4.5
asS'indranagar.we'
p2209
(lp2210
I1
aF4.0
asS'buck'
p2211
(lp2212
I1
aF5.0
asS'anything'
p2213
(lp2214
I1
aF4.5
asS'items'
p2215
(lp2216
I1
aF5.0
asS'times'
p2217
(lp2218
I1
aF4.5
asS'pistachio'
p2219
(lp2220
I1
aF2.5
asS'amount'
p2221
(lp2222
I1
aF4.5
asS'place'
p2223
(lp2224
I16
aF74.0
asS'chocolate truffle'
p2225
(lp2226
I1
aF4.5
asS'chocolate ice cream'
p2227
(lp2228
I2
aF9.5
asS'geniuses'
p2229
(lp2230
I1
aF5.0
asS'point.we'
p2231
(lp2232
I2
aF8.5
asS'berry type'
p2233
(lp2234
I1
aF2.5
asS'tiramisu icecream'
p2235
(lp2236
I2
aF9.5
asS'sweet'
p2237
(lp2238
I1
aF4.0
asS'yummy ice creams'
p2239
(lp2240
I1
aF5.0
asS'berries..'
p2241
(lp2242
I1
aF2.5
asS'wine'
p2243
(lp2244
I1
aF4.5
asS'taste.we'
p2245
(lp2246
I1
aF4.0
asS'cups'
p2247
(lp2248
I1
aF4.5
asS'fruity flavors'
p2249
(lp2250
I1
aF4.5
asS'truth i'
p2251
(lp2252
I1
aF4.5
asS'flavors'
p2253
(lp2254
I3
aF14.0
asS'management'
p2255
(lp2256
I1
aF5.0
asS'service'
p2257
(lp2258
I1
aF5.0
asS'area'
p2259
(lp2260
I1
aF4.5
asS'beginning'
p2261
(lp2262
I1
aF5.0
asS'bite'
p2263
(lp2264
I1
aF2.5
asS'wildberries'
p2265
(lp2266
I2
aF9.5
asS'visit'
p2267
(lp2268
I3
aF14.5
asS'wasnt'
p2269
(lp2270
I1
aF5.0
asS'creamiest'
p2271
(lp2272
I1
aF4.5
asS'fragrance'
p2273
(lp2274
I1
aF5.0
asS'scope'
p2275
(lp2276
I1
aF4.0
asS'creams'
p2277
(lp2278
I2
aF8.5
asS'type'
p2279
(lp2280
I1
aF5.0
asS'gelatos'
p2281
(lp2282
I3
aF14.0
asS'life'
p2283
(lp2284
I1
aF5.0
asS'almond'
p2285
(lp2286
I1
aF2.5
asS'stomach'
p2287
(lp2288
I1
aF4.5
asS'cocoa dust'
p2289
(lp2290
I1
aF5.0
asS'form'
p2291
(lp2292
I1
aF5.0
asS'placeif i'
p2293
(lp2294
I1
aF4.5
asS'sundaes'
p2295
(lp2296
I3
aF14.0
asS'chocolate'
p2297
(lp2298
I1
aF4.0
asS'ambience'
p2299
(lp2300
I1
aF2.5
asS'it.they'
p2301
(lp2302
I1
aF4.0
asS'hazelnut'
p2303
(lp2304
I1
aF5.0
asS'update **'
p2305
(lp2306
I1
aF5.0
asS'branches'
p2307
(lp2308
I1
aF4.0
asS'ice cream parlor'
p2309
(lp2310
I1
aF5.0
asS'cream lovers'
p2311
(lp2312
I1
aF4.5
asS'town'
p2313
(lp2314
I1
aF5.0
asS'honey'
p2315
(lp2316
I1
aF2.5
asS'kind'
p2317
(lp2318
I2
aF9.5
asS'portions'
p2319
(lp2320
I1
aF4.5
asS'places'
p2321
(lp2322
I2
aF9.0
asS'work'
p2323
(lp2324
I1
aF5.0
asS'value'
p2325
(lp2326
I2
aF8.5
asS'wallet'
p2327
(lp2328
I1
aF4.5
asS'shizzzzz'
p2329
(lp2330
I1
aF5.0
asS'icecream fan'
p2331
(lp2332
I1
aF5.0
asS'zomato'
p2333
(lp2334
I1
aF5.0
asS'cr\xc3\xa8me br\xc3\xbbl\xc3\xa9e \xe2\x9d\xa4\xef\xb8\x8f cant get'
p2335
(lp2336
I1
aF4.5
asS'ice cream lovers'
p2337
(lp2338
I2
aF9.0
asS'problem'
p2339
(lp2340
I1
aF4.5
asS'minutes'
p2341
(lp2342
I1
aF5.0
asS'hearts content'
p2343
(lp2344
I1
aF4.5
asS'heart'
p2345
(lp2346
I4
aF18.0
asS'bidding farewell'
p2347
(lp2348
I2
aF8.5
asS'crepes'
p2349
(lp2350
I3
aF14.0
asS'money.we'
p2351
(lp2352
I1
aF4.0
asS'taste'
p2353
(lp2354
I2
aF9.5
asS'lingers'
p2355
(lp2356
I1
aF5.0
asS'mind'
p2357
(lp2358
I1
aF5.0
asS'eyes'
p2359
(lp2360
I1
aF4.5
asS'chocolate sauce'
p2361
(lp2362
I2
aF8.5
asS'tastes'
p2363
(lp2364
I1
aF5.0
asS'truffles.creamy'
p2365
(lp2366
I1
aF4.0
asS'goodness'
p2367
(lp2368
I1
aF5.0
asS'partner'
p2369
(lp2370
I2
aF8.5
asS'banana split'
p2371
(lp2372
I1
aF2.5
asS'quality ice creams'
p2373
(lp2374
I3
aF13.0
asS'cream'
p2375
(lp2376
I6
aF27.0
asS'milano outlet'
p2377
(lp2378
I1
aF5.0
asS'ratings'
p2379
(lp2380
I2
aF8.5
asS'decor'
p2381
(lp2382
I1
aF4.5
asS'lemon'
p2383
(lp2384
I1
aF4.5
asS'variety'
p2385
(lp2386
I3
aF11.5
asS'concoction'
p2387
(lp2388
I1
aF5.0
asS'indiranagar'
p2389
(lp2390
I2
aF9.5
asS'dining'
p2391
(lp2392
I1
aF4.5
asS'chocolate flavors..'
p2393
(lp2394
I1
aF4.5
asS'freshly'
p2395
(lp2396
I1
aF4.5
asS'becomes'
p2397
(lp2398
I1
aF4.0
asS'great.i'
p2399
(lp2400
I1
aF4.5
asS'truffles'
p2401
(lp2402
I1
aF5.0
asS'ice cream cake slice'
p2403
(lp2404
I1
aF4.5
asS'pain'
p2405
(lp2406
I1
aF5.0
asS'favourite'
p2407
(lp2408
I1
aF4.5
asS'price'
p2409
(lp2410
I3
aF14.5
asS'felt'
p2411
(lp2412
I2
aF9.5
asS'friends'
p2413
(lp2414
I1
aF5.0
asS'time..'
p2415
(lp2416
I1
aF4.5
asS'stay'
p2417
(lp2418
I2
aF8.5
asS'amazingthe'
p2419
(lp2420
I1
aF4.5
asS'split sundaes'
p2421
(lp2422
I1
aF5.0
asS'choice'
p2423
(lp2424
I2
aF8.5
asS'weekend'
p2425
(lp2426
I1
aF4.0
asS'places..guys'
p2427
(lp2428
I1
aF5.0
asS'notch'
p2429
(lp2430
I1
aF5.0
asS'crepe'
p2431
(lp2432
I3
aF12.0
asS'ice cream / dessert lovers'
p2433
(lp2434
I1
aF5.0
asS'spirulina'
p2435
(lp2436
I1
aF5.0
asS'gelato'
p2437
(lp2438
I4
aF19.0
asS'milano'
p2439
(lp2440
I1
aF4.5
asS'most.we'
p2441
(lp2442
I1
aF4.5
asS'city.simple'
p2443
(lp2444
I1
aF4.5
asS'lots'
p2445
(lp2446
I1
aF5.0
asS'portion'
p2447
(lp2448
I1
aF4.5
asS'gelato parlour'
p2449
(lp2450
I1
aF4.5
asS'time'
p2451
(lp2452
I4
aF18.5
asS'pleasure'
p2453
(lp2454
I1
aF5.0
asS'berries'
p2455
(lp2456
I5
aF21.5
asS'ice creams'
p2457
(lp2458
I2
aF9.5
asS'quantity'
p2459
(lp2460
I1
aF5.0
assS'52459'
p2461
(dp2462
S'forget'
p2463
(lp2464
I1
aF4.0
asS'bhath'
p2465
(lp2466
I1
aF5.0
asS'dish'
p2467
(lp2468
I1
aF5.0
asS'sports session'
p2469
(lp2470
I1
aF2.5
asS'poori'
p2471
(lp2472
I3
aF12.5
asS'landmark breakfast joint'
p2473
(lp2474
I1
aF4.0
asS'cuppa'
p2475
(lp2476
I2
aF8.5
asS'benne masala dosa'
p2477
(lp2478
I9
aF40.0
asS'ambience'
p2479
(lp2480
I6
aF26.0
asS'siddanna'
p2481
(lp2482
I1
aF5.0
asS'waiters'
p2483
(lp2484
I1
aF4.5
asS'coconut flavour.the benne masala dosa'
p2485
(lp2486
I1
aF3.5
asS'song'
p2487
(lp2488
I1
aF4.5
asS'dosa lovers'
p2489
(lp2490
I1
aF4.0
asS'corner store'
p2491
(lp2492
I1
aF4.5
asS'school'
p2493
(lp2494
I3
aF13.0
asS'waits .it'
p2495
(lp2496
I1
aF4.0
asS'specialties'
p2497
(lp2498
I2
aF9.0
asS'quick'
p2499
(lp2500
I2
aF8.5
asS'benne dosas'
p2501
(lp2502
I2
aF9.0
asS'havent'
p2503
(lp2504
I1
aF4.5
asS'chalukya'
p2505
(lp2506
I1
aF4.5
asS'seasoning'
p2507
(lp2508
I1
aF5.0
asS'streets'
p2509
(lp2510
I4
aF18.0
asS'rate'
p2511
(lp2512
I2
aF8.5
asS'street'
p2513
(lp2514
I2
aF8.5
asS'hesitation'
p2515
(lp2516
I3
aF12.5
asS'overload'
p2517
(lp2518
I1
aF4.5
asS'plain benne dosa'
p2519
(lp2520
I1
aF5.0
asS'speed service'
p2521
(lp2522
I1
aF4.5
asS'health freak myt'
p2523
(lp2524
I2
aF8.5
asS'poori bhaji'
p2525
(lp2526
I2
aF8.5
asS'dosa i'
p2527
(lp2528
I1
aF4.0
asS'coffee.. i'
p2529
(lp2530
I1
aF4.0
asS'others'
p2531
(lp2532
I1
aF5.0
asS'wait'
p2533
(lp2534
I4
aF16.5
asS'experience'
p2535
(lp2536
I2
aF8.0
asS'queue'
p2537
(lp2538
I1
aF4.0
asS'vintages'
p2539
(lp2540
I1
aF4.5
asS'weekday'
p2541
(lp2542
I2
aF8.5
asS'order placing'
p2543
(lp2544
I2
aF8.5
asS'spices'
p2545
(lp2546
I1
aF3.5
asS'google searches'
p2547
(lp2548
I2
aF9.0
asS'trademark bene'
p2549
(lp2550
I1
aF4.5
asS'bangalore..'
p2551
(lp2552
I1
aF4.0
asS'visit'
p2553
(lp2554
I5
aF21.5
asS'ground floor'
p2555
(lp2556
I2
aF8.5
asS'strong.it'
p2557
(lp2558
I1
aF4.5
asS'manglore bajjis'
p2559
(lp2560
I1
aF4.0
asS'today'
p2561
(lp2562
I3
aF13.0
asS'upma'
p2563
(lp2564
I1
aF4.0
asS'company'
p2565
(lp2566
I2
aF8.5
asS'award'
p2567
(lp2568
I2
aF8.5
asS'benne saagu dosa'
p2569
(lp2570
I1
aF4.0
asS'starter'
p2571
(lp2572
I1
aF4.5
asS'town'
p2573
(lp2574
I1
aF4.0
asS'none'
p2575
(lp2576
I2
aF8.5
asS'enuf btw'
p2577
(lp2578
I2
aF8.5
asS'outcast status'
p2579
(lp2580
I1
aF4.5
asS'reviews'
p2581
(lp2582
I2
aF8.5
asS'mall'
p2583
(lp2584
I2
aF9.0
asS'bites'
p2585
(lp2586
I2
aF8.5
asS'order mangalore bajji'
p2587
(lp2588
I1
aF4.0
asS'crunch sound'
p2589
(lp2590
I2
aF8.5
asS'beautiful'
p2591
(lp2592
I1
aF4.0
asS'heard'
p2593
(lp2594
I1
aF5.0
asS'salty'
p2595
(lp2596
I1
aF3.5
asS'something'
p2597
(lp2598
I1
aF4.5
asS'bastardization'
p2599
(lp2600
I2
aF8.5
asS'onions'
p2601
(lp2602
I1
aF5.0
asS'till'
p2603
(lp2604
I2
aF9.0
asS'amazing'
p2605
(lp2606
I2
aF9.0
asS'bajji availabe'
p2607
(lp2608
I1
aF4.0
asS'disappoint'
p2609
(lp2610
I1
aF4.5
asS'puri'
p2611
(lp2612
I4
aF17.0
asS'stock'
p2613
(lp2614
I2
aF8.5
asS'morning breakfast'
p2615
(lp2616
I1
aF4.0
asS'potato palya'
p2617
(lp2618
I1
aF3.5
asS'filter coffee.ctr'
p2619
(lp2620
I1
aF2.0
asS'kindthe benne masala dosa'
p2621
(lp2622
I1
aF4.0
asS'bangalore.its'
p2623
(lp2624
I2
aF8.5
asS'benne'
p2625
(lp2626
I1
aF5.0
asS'pleasure'
p2627
(lp2628
I3
aF12.5
asS'words'
p2629
(lp2630
I2
aF9.0
asS'order'
p2631
(lp2632
I5
aF21.5
asS'help'
p2633
(lp2634
I3
aF12.5
asS'dosa camp'
p2635
(lp2636
I1
aF5.0
asS'vidyarthi bhavan'
p2637
(lp2638
I1
aF4.5
asS'existence'
p2639
(lp2640
I2
aF9.0
asS'steel glasses'
p2641
(lp2642
I1
aF4.5
asS'food joints'
p2643
(lp2644
I1
aF4.0
asS'counter didnt help'
p2645
(lp2646
I2
aF9.0
asS'menus'
p2647
(lp2648
I3
aF13.0
asS'expectations'
p2649
(lp2650
I1
aF5.0
asS'platform'
p2651
(lp2652
I2
aF8.5
asS'parts'
p2653
(lp2654
I2
aF9.0
asS'accompaniments'
p2655
(lp2656
I1
aF3.5
asS'crowds'
p2657
(lp2658
I2
aF9.0
asS'coffee'
p2659
(lp2660
I8
aF34.5
asS'someone'
p2661
(lp2662
I2
aF8.5
asS'food'
p2663
(lp2664
I9
aF37.0
asS'wait times'
p2665
(lp2666
I1
aF4.5
asS'hands'
p2667
(lp2668
I2
aF9.0
asS'front'
p2669
(lp2670
I2
aF8.5
asS'bath'
p2671
(lp2672
I4
aF16.5
asS'benne dosa'
p2673
(lp2674
I6
aF25.5
asS'today morning'
p2675
(lp2676
I1
aF4.0
asS'thank god'
p2677
(lp2678
I1
aF4.0
asS'name'
p2679
(lp2680
I1
aF4.5
asS'crunchy'
p2681
(lp2682
I2
aF8.5
asS'freshness'
p2683
(lp2684
I1
aF2.5
asS'filling'
p2685
(lp2686
I1
aF4.0
asS'meal'
p2687
(lp2688
I6
aF26.0
asS'everyone'
p2689
(lp2690
I4
aF18.0
asS'hard'
p2691
(lp2692
I1
aF4.0
asS'evening snack'
p2693
(lp2694
I1
aF4.5
asS'saturday'
p2695
(lp2696
I2
aF8.5
asS'vada'
p2697
(lp2698
I4
aF17.0
asS'coffee i'
p2699
(lp2700
I1
aF4.0
asS'chaos'
p2701
(lp2702
I2
aF9.0
asS'ghee dosa'
p2703
(lp2704
I1
aF4.5
asS'food joint'
p2705
(lp2706
I1
aF2.5
asS'pudina'
p2707
(lp2708
I2
aF5.5
asS'malleshwaram'
p2709
(lp2710
I8
aF35.0
asS'reason'
p2711
(lp2712
I1
aF4.0
asS'struggle'
p2713
(lp2714
I2
aF9.0
asS'members'
p2715
(lp2716
I1
aF4.0
asS'care'
p2717
(lp2718
I2
aF9.0
asS'masala dosa i'
p2719
(lp2720
I1
aF4.0
asS'waiter'
p2721
(lp2722
I8
aF35.5
asS'thing'
p2723
(lp2724
I2
aF8.5
asS'heck'
p2725
(lp2726
I1
aF5.0
asS'place'
p2727
(lp2728
I26
aF112.5
asS'shiv sagar'
p2729
(lp2730
I1
aF5.0
asS'dont'
p2731
(lp2732
I1
aF4.0
asS'golibaje'
p2733
(lp2734
I1
aF5.0
asS'feel'
p2735
(lp2736
I1
aF4.5
asS'number'
p2737
(lp2738
I2
aF9.0
asS'floors'
p2739
(lp2740
I2
aF9.0
asS'thick'
p2741
(lp2742
I1
aF4.0
asS'quality'
p2743
(lp2744
I3
aF11.5
asS'dosa value'
p2745
(lp2746
I1
aF4.0
asS'size'
p2747
(lp2748
I1
aF4.0
asS'service'
p2749
(lp2750
I6
aF24.5
asS'bite'
p2751
(lp2752
I2
aF8.5
asS'vb burning'
p2753
(lp2754
I1
aF4.5
asS'system'
p2755
(lp2756
I1
aF4.0
asS'pudina chutney'
p2757
(lp2758
I2
aF9.0
asS'masala'
p2759
(lp2760
I3
aF13.5
asS'benne masala dosas help'
p2761
(lp2762
I1
aF4.0
asS'friend'
p2763
(lp2764
I1
aF4.0
asS'eyes'
p2765
(lp2766
I1
aF5.0
asS'saagu'
p2767
(lp2768
I1
aF3.5
asS'part'
p2769
(lp2770
I1
aF4.5
asS'accompaniment'
p2771
(lp2772
I2
aF8.5
asS'serving restaurants'
p2773
(lp2774
I2
aF9.0
asS'both.the upma'
p2775
(lp2776
I1
aF4.0
asS'idli'
p2777
(lp2778
I4
aF17.0
asS'coconut'
p2779
(lp2780
I2
aF6.0
asS'wasnt'
p2781
(lp2782
I1
aF4.0
asS'ages'
p2783
(lp2784
I2
aF9.0
asS'tastes'
p2785
(lp2786
I1
aF3.5
asS'breakfast'
p2787
(lp2788
I4
aF15.0
asS'dosas'
p2789
(lp2790
I9
aF41.0
asS'orders'
p2791
(lp2792
I1
aF5.0
asS'filter coffee'
p2793
(lp2794
I6
aF26.0
asS'hardcore coffee lover'
p2795
(lp2796
I2
aF8.5
asS'moist'
p2797
(lp2798
I2
aF8.5
asS'mouth'
p2799
(lp2800
I1
aF5.0
asS'nothing'
p2801
(lp2802
I2
aF8.5
asS'pooris'
p2803
(lp2804
I1
aF3.5
asS'potato pulya'
p2805
(lp2806
I1
aF4.5
asS'mysore masala'
p2807
(lp2808
I1
aF5.0
asS'crowd'
p2809
(lp2810
I3
aF13.0
asS'vidyarthi bhavans jealousy'
p2811
(lp2812
I1
aF4.5
asS'dosa crispy'
p2813
(lp2814
I1
aF5.0
asS'salt'
p2815
(lp2816
I1
aF5.0
asS'quantity'
p2817
(lp2818
I1
aF4.0
asS'regularvisitor'
p2819
(lp2820
I1
aF4.5
asS'fast food restaurant'
p2821
(lp2822
I2
aF8.5
asS'cheap'
p2823
(lp2824
I1
aF4.0
asS'ghee..'
p2825
(lp2826
I2
aF8.5
asS'corner'
p2827
(lp2828
I2
aF8.5
asS'find'
p2829
(lp2830
I1
aF4.0
asS'staff'
p2831
(lp2832
I2
aF8.5
asS'commonplace chutney'
p2833
(lp2834
I1
aF5.0
asS'bht hey'
p2835
(lp2836
I1
aF5.0
asS'menu'
p2837
(lp2838
I2
aF8.5
asS'weekends'
p2839
(lp2840
I2
aF6.5
asS'fans'
p2841
(lp2842
I1
aF5.0
asS'try.'
p2843
(lp2844
I1
aF4.0
asS'bliss'
p2845
(lp2846
I1
aF5.0
asS'plate'
p2847
(lp2848
I2
aF9.0
asS'chow chow bath'
p2849
(lp2850
I1
aF4.0
asS'pocket'
p2851
(lp2852
I2
aF8.5
asS'outlet'
p2853
(lp2854
I1
aF5.0
asS'shri sagar'
p2855
(lp2856
I2
aF8.5
asS'breakfast time'
p2857
(lp2858
I2
aF9.0
asS'benne plain'
p2859
(lp2860
I1
aF4.5
asS'chutney'
p2861
(lp2862
I5
aF21.5
asS'bangalorean'
p2863
(lp2864
I1
aF4.5
asS'mumbai.food'
p2865
(lp2866
I2
aF8.5
asS'morning'
p2867
(lp2868
I3
aF14.0
asS'recommendations'
p2869
(lp2870
I2
aF8.5
asS'grab'
p2871
(lp2872
I2
aF8.5
asS'interiors'
p2873
(lp2874
I2
aF9.0
asS'restaurants'
p2875
(lp2876
I3
aF12.5
asS'brim'
p2877
(lp2878
I1
aF5.0
asS'seats'
p2879
(lp2880
I1
aF5.0
asS'janardhan'
p2881
(lp2882
I1
aF4.5
asS'seat'
p2883
(lp2884
I5
aF22.0
asS'idlis'
p2885
(lp2886
I2
aF8.5
asS'ms ramaiah college'
p2887
(lp2888
I2
aF8.5
asS'visiting'
p2889
(lp2890
I1
aF4.5
asS'review'
p2891
(lp2892
I2
aF8.5
asS'please'
p2893
(lp2894
I1
aF4.5
asS'puri sabzi'
p2895
(lp2896
I2
aF8.5
asS'outside'
p2897
(lp2898
I1
aF3.5
asS'tiffin room'
p2899
(lp2900
I3
aF13.5
asS'rava dosa didnt pass muster'
p2901
(lp2902
I1
aF5.0
asS'blore'
p2903
(lp2904
I1
aF4.5
asS'ability'
p2905
(lp2906
I1
aF5.0
asS'dosa today'
p2907
(lp2908
I1
aF5.0
asS'ctr kills'
p2909
(lp2910
I1
aF4.5
asS'yumm'
p2911
(lp2912
I1
aF4.0
asS'awards'
p2913
(lp2914
I2
aF8.5
asS'diners'
p2915
(lp2916
I3
aF13.5
asS'restaurant'
p2917
(lp2918
I2
aF8.5
asS'palya'
p2919
(lp2920
I1
aF5.0
asS'country'
p2921
(lp2922
I2
aF8.5
asS'ctr today.. everyone'
p2923
(lp2924
I1
aF4.0
asS'kaapi'
p2925
(lp2926
I3
aF13.0
asS'yummy benne masala dosas'
p2927
(lp2928
I2
aF9.0
asS'grounds'
p2929
(lp2930
I1
aF2.5
asS'wall'
p2931
(lp2932
I3
aF13.0
asS'sweet'
p2933
(lp2934
I2
aF8.5
asS'period'
p2935
(lp2936
I1
aF4.0
asS'part sign language'
p2937
(lp2938
I2
aF9.0
asS'table'
p2939
(lp2940
I7
aF33.0
asS'crispy'
p2941
(lp2942
I1
aF3.5
asS'stomach filler'
p2943
(lp2944
I1
aF3.5
asS'hindu'
p2945
(lp2946
I2
aF8.5
asS'bengaluru'
p2947
(lp2948
I2
aF9.5
asS'treat'
p2949
(lp2950
I1
aF4.5
asS'interest'
p2951
(lp2952
I1
aF5.0
asS'hotel.there'
p2953
(lp2954
I1
aF4.0
asS'placethis place'
p2955
(lp2956
I1
aF4.5
asS'evenings.reminds'
p2957
(lp2958
I1
aF2.5
asS'sabzi'
p2959
(lp2960
I2
aF8.5
asS'prison'
p2961
(lp2962
I1
aF4.5
asS'banglore.the'
p2963
(lp2964
I1
aF4.0
asS'lives'
p2965
(lp2966
I1
aF4.0
asS'prices'
p2967
(lp2968
I1
aF4.5
asS'masala dosa'
p2969
(lp2970
I8
aF34.0
asS'decades'
p2971
(lp2972
I1
aF4.0
asS'evening'
p2973
(lp2974
I2
aF9.0
asS'kick'
p2975
(lp2976
I1
aF2.5
asS'zomato'
p2977
(lp2978
I1
aF4.0
asS'equator'
p2979
(lp2980
I1
aF4.5
asS'dosas @ cause'
p2981
(lp2982
I2
aF9.0
asS'benne masala dosas'
p2983
(lp2984
I1
aF4.5
asS'bucks'
p2985
(lp2986
I2
aF8.5
asS'mangalore bajji'
p2987
(lp2988
I3
aF11.0
asS'mins'
p2989
(lp2990
I3
aF13.0
asS'god help'
p2991
(lp2992
I1
aF4.0
asS'bajji'
p2993
(lp2994
I1
aF4.0
asS'mangaluru bajjis'
p2995
(lp2996
I1
aF4.5
asS'desert island'
p2997
(lp2998
I1
aF4.5
asS'frndz'
p2999
(lp3000
I2
aF8.5
asS'party'
p3001
(lp3002
I2
aF9.0
asS'disappointment'
p3003
(lp3004
I1
aF5.0
asS'malleswaram dosa'
p3005
(lp3006
I2
aF8.5
asS'landmark restaurant'
p3007
(lp3008
I1
aF5.0
asS'benne masala'
p3009
(lp3010
I1
aF4.0
asS'butter'
p3011
(lp3012
I7
aF31.0
asS'colour'
p3013
(lp3014
I1
aF3.5
asS'breakfast items'
p3015
(lp3016
I1
aF4.0
asS'display menu'
p3017
(lp3018
I1
aF4.0
asS'dosa'
p3019
(lp3020
I21
aF89.5
asS'rest'
p3021
(lp3022
I1
aF4.0
asS'rava idlis'
p3023
(lp3024
I1
aF4.5
asS'order everything'
p3025
(lp3026
I2
aF9.0
asS'attraction'
p3027
(lp3028
I1
aF2.5
asS'death row'
p3029
(lp3030
I1
aF4.5
asS'breakfast joint'
p3031
(lp3032
I1
aF5.0
asS'tables'
p3033
(lp3034
I2
aF9.0
asS'breakfast place'
p3035
(lp3036
I2
aF8.5
asS'ghee'
p3037
(lp3038
I4
aF17.0
asS'mouth..'
p3039
(lp3040
I1
aF4.0
asS'coconut chutney'
p3041
(lp3042
I4
aF17.5
asS'kara bhath'
p3043
(lp3044
I1
aF5.0
asS'glazing'
p3045
(lp3046
I1
aF4.5
asS'world'
p3047
(lp3048
I2
aF8.5
asS'benne dose'
p3049
(lp3050
I1
aF4.0
asS'bangalore favorite'
p3051
(lp3052
I1
aF5.0
asS'crisp'
p3053
(lp3054
I4
aF15.5
asS'entrance door'
p3055
(lp3056
I2
aF9.0
asS'fianc\xc3\xa9'
p3057
(lp3058
I1
aF4.5
asS'love it\xf0\x9f\x92\x9e'
p3059
(lp3060
I1
aF4.0
asS'deal'
p3061
(lp3062
I1
aF4.0
asS'people'
p3063
(lp3064
I6
aF26.5
asS'dosa fluffy'
p3065
(lp3066
I2
aF8.5
asS'stuffs'
p3067
(lp3068
I1
aF5.0
asS'server'
p3069
(lp3070
I1
aF4.0
asS'breakfast regulars'
p3071
(lp3072
I1
aF4.5
asS'scale'
p3073
(lp3074
I2
aF8.5
asS'butter/ ghee'
p3075
(lp3076
I1
aF4.0
asS'bottom'
p3077
(lp3078
I1
aF3.5
asS'rava'
p3079
(lp3080
I3
aF13.5
asS'office crowd'
p3081
(lp3082
I2
aF8.5
asS'cradle'
p3083
(lp3084
I1
aF4.5
asS'nothing fancy'
p3085
(lp3086
I1
aF4.5
asS'part kannada'
p3087
(lp3088
I2
aF9.0
asS'bangalore'
p3089
(lp3090
I15
aF63.0
asS'margosa road'
p3091
(lp3092
I1
aF4.5
asS'morning..'
p3093
(lp3094
I1
aF4.0
asS'anything'
p3095
(lp3096
I1
aF4.5
asS'side'
p3097
(lp3098
I1
aF4.5
asS'bestseller'
p3099
(lp3100
I2
aF8.5
asS'dinner'
p3101
(lp3102
I2
aF8.5
asS'sean paul'
p3103
(lp3104
I1
aF4.5
asS'afternoon'
p3105
(lp3106
I3
aF13.5
asS'presence'
p3107
(lp3108
I1
aF4.5
asS'kannada menu'
p3109
(lp3110
I2
aF9.0
asS'servers'
p3111
(lp3112
I1
aF4.5
asS'legends'
p3113
(lp3114
I2
aF8.5
asS'area'
p3115
(lp3116
I2
aF8.5
asS'heritage'
p3117
(lp3118
I2
aF9.0
asS'head'
p3119
(lp3120
I1
aF4.0
asS'mornings'
p3121
(lp3122
I1
aF4.5
asS'dosas ive'
p3123
(lp3124
I1
aF4.5
asS'buttery'
p3125
(lp3126
I1
aF4.0
asS'sagar'
p3127
(lp3128
I1
aF4.0
asS'rava idli'
p3129
(lp3130
I2
aF9.5
asS'fast.the quantity'
p3131
(lp3132
I1
aF2.5
asS'bangalore.blurrp'
p3133
(lp3134
I1
aF4.5
asS'rush'
p3135
(lp3136
I1
aF4.5
asS'veg south'
p3137
(lp3138
I2
aF8.5
asS'places'
p3139
(lp3140
I2
aF9.5
asS'inside'
p3141
(lp3142
I1
aF3.5
asS'piece'
p3143
(lp3144
I1
aF4.0
asS'minutes'
p3145
(lp3146
I8
aF33.0
asS'sambar'
p3147
(lp3148
I2
aF8.5
asS'taste'
p3149
(lp3150
I4
aF15.0
asS'vinayaka mylari'
p3151
(lp3152
I2
aF8.5
asS'kannada'
p3153
(lp3154
I1
aF4.0
asS'bene masala dosa'
p3155
(lp3156
I1
aF4.5
asS'crumbly'
p3157
(lp3158
I2
aF8.5
asS'tasty'
p3159
(lp3160
I1
aF4.0
asS'trip'
p3161
(lp3162
I2
aF8.5
asS'dosas.it'
p3163
(lp3164
I1
aF4.5
asS'floor'
p3165
(lp3166
I2
aF8.5
asS'amounts'
p3167
(lp3168
I1
aF5.0
asS'mysore'
p3169
(lp3170
I2
aF8.5
asS'sharing tiffin system'
p3171
(lp3172
I1
aF4.5
asS'never.how'
p3173
(lp3174
I2
aF8.5
asS'coffees'
p3175
(lp3176
I1
aF5.0
asS'> < /span >'
p3177
(lp3178
I1
aF4.0
asS'chance'
p3179
(lp3180
I4
aF17.5
asS'journey'
p3181
(lp3182
I1
aF4.5
asS'weekend'
p3183
(lp3184
I1
aF4.5
asS'building'
p3185
(lp3186
I4
aF17.5
asS'table.then'
p3187
(lp3188
I1
aF4.0
asS'mangalore bajjis'
p3189
(lp3190
I1
aF4.0
asS'time.the mangalore bajji'
p3191
(lp3192
I1
aF4.0
asS'food critics'
p3193
(lp3194
I2
aF8.5
asS'sambhar'
p3195
(lp3196
I3
aF12.5
asS'chutneys'
p3197
(lp3198
I3
aF12.5
asS'time'
p3199
(lp3200
I8
aF33.5
asS'food item'
p3201
(lp3202
I2
aF8.5
assS'55642'
p3203
(dp3204
S'rating'
p3205
(lp3206
I1
aF3.0
asS'money'
p3207
(lp3208
I4
aF14.0
asS'dosa'
p3209
(lp3210
I6
aF15.0
asS'rava idlis'
p3211
(lp3212
I1
aF3.5
asS'manager'
p3213
(lp3214
I1
aF1.0
asS'idlies'
p3215
(lp3216
I2
aF7.0
asS'thanks'
p3217
(lp3218
I1
aF1.0
asS'dish'
p3219
(lp3220
I1
aF3.0
asS'onion uthapam'
p3221
(lp3222
I1
aF1.0
asS'tadty'
p3223
(lp3224
I1
aF2.5
asS'sagu'
p3225
(lp3226
I1
aF5.0
asS'milk'
p3227
(lp3228
I1
aF1.0
asS'staff'
p3229
(lp3230
I4
aF9.0
asS'snack'
p3231
(lp3232
I1
aF3.5
asS'rocket dosa'
p3233
(lp3234
I1
aF3.0
asS'menu'
p3235
(lp3236
I3
aF10.5
asS'gopalan'
p3237
(lp3238
I2
aF4.5
asS'hotel i'
p3239
(lp3240
I1
aF4.0
asS'shout'
p3241
(lp3242
I1
aF4.5
asS'bliss'
p3243
(lp3244
I1
aF1.0
asS'button idlis'
p3245
(lp3246
I2
aF2.0
asS'price i'
p3247
(lp3248
I1
aF3.0
asS'ambience'
p3249
(lp3250
I3
aF9.0
asS'worth'
p3251
(lp3252
I1
aF1.0
asS'signature mall'
p3253
(lp3254
I4
aF11.5
asS'kanchipuram dosa'
p3255
(lp3256
I1
aF3.0
asS'lack'
p3257
(lp3258
I1
aF1.0
asS'food'
p3259
(lp3260
I12
aF28.5
asS'kanchipuram masala dosa'
p3261
(lp3262
I1
aF3.0
asS'pocket'
p3263
(lp3264
I1
aF4.0
asS'joint'
p3265
(lp3266
I1
aF3.5
asS'spoon'
p3267
(lp3268
I1
aF3.5
asS'dosa batter wasnt tadty'
p3269
(lp3270
I1
aF2.5
asS'outlet'
p3271
(lp3272
I4
aF7.0
asS'freind'
p3273
(lp3274
I1
aF3.5
asS'chutney'
p3275
(lp3276
I1
aF4.0
asS'customer experience'
p3277
(lp3278
I1
aF1.0
asS'name'
p3279
(lp3280
I3
aF6.0
asS'level'
p3281
(lp3282
I2
aF6.5
asS'shopping'
p3283
(lp3284
I2
aF7.0
asS'morning'
p3285
(lp3286
I2
aF8.5
asS'filling'
p3287
(lp3288
I1
aF4.5
asS'stuff'
p3289
(lp3290
I1
aF1.0
asS'mr.idli'
p3291
(lp3292
I1
aF3.5
asS'loads'
p3293
(lp3294
I1
aF1.0
asS'couldnt wait'
p3295
(lp3296
I1
aF2.0
asS'fusion idlis'
p3297
(lp3298
I1
aF1.0
asS'restaurants'
p3299
(lp3300
I1
aF4.5
asS'seating'
p3301
(lp3302
I1
aF3.0
asS'gopalan.. someone'
p3303
(lp3304
I1
aF1.0
asS'people'
p3305
(lp3306
I1
aF1.0
asS'ambiance'
p3307
(lp3308
I1
aF3.5
asS'food half'
p3309
(lp3310
I1
aF1.0
asS'cost'
p3311
(lp3312
I1
aF1.0
asS'pricing'
p3313
(lp3314
I1
aF2.5
asS'idlis'
p3315
(lp3316
I4
aF7.5
asS'home'
p3317
(lp3318
I1
aF3.5
asS'choices'
p3319
(lp3320
I1
aF1.0
asS'food court'
p3321
(lp3322
I2
aF6.5
asS'madras'
p3323
(lp3324
I1
aF1.0
asS'movie'
p3325
(lp3326
I1
aF1.0
asS'review'
p3327
(lp3328
I1
aF2.0
asS'spring onions'
p3329
(lp3330
I1
aF5.0
asS'moon'
p3331
(lp3332
I1
aF3.5
asS'everything'
p3333
(lp3334
I2
aF2.0
asS'above'
p3335
(lp3336
I1
aF5.0
asS'meal'
p3337
(lp3338
I1
aF4.0
asS'id love'
p3339
(lp3340
I1
aF3.0
asS'overstatement'
p3341
(lp3342
I1
aF2.0
asS'hours'
p3343
(lp3344
I1
aF1.0
asS'negatives'
p3345
(lp3346
I1
aF3.5
asS'leftover'
p3347
(lp3348
I1
aF3.0
asS'bangalore'
p3349
(lp3350
I1
aF3.5
asS'self service'
p3351
(lp3352
I1
aF4.0
asS'food presentation'
p3353
(lp3354
I1
aF3.5
asS'food service system'
p3355
(lp3356
I1
aF2.0
asS'thread'
p3357
(lp3358
I1
aF1.0
asS'restaurant'
p3359
(lp3360
I3
aF3.0
asS'items'
p3361
(lp3362
I2
aF6.5
asS'qualityprices'
p3363
(lp3364
I1
aF4.5
asS'experience'
p3365
(lp3366
I1
aF2.0
asS'times'
p3367
(lp3368
I1
aF2.0
asS'onion dosas'
p3369
(lp3370
I1
aF3.5
asS'place'
p3371
(lp3372
I9
aF27.5
asS'dour smell'
p3373
(lp3374
I1
aF2.5
asS'hospitality'
p3375
(lp3376
I1
aF1.0
asS'pluses'
p3377
(lp3378
I1
aF3.5
asS'south'
p3379
(lp3380
I1
aF1.0
asS'cheese'
p3381
(lp3382
I1
aF3.0
asS'setve'
p3383
(lp3384
I1
aF3.5
asS'i couldnt'
p3385
(lp3386
I1
aF4.5
asS'service time'
p3387
(lp3388
I1
aF2.0
asS'received.you'
p3389
(lp3390
I1
aF4.5
asS'button ghee'
p3391
(lp3392
I1
aF1.0
asS'bland'
p3393
(lp3394
I1
aF1.0
asS'quality'
p3395
(lp3396
I1
aF3.0
asS'hotels'
p3397
(lp3398
I1
aF4.0
asS'mind blowing'
p3399
(lp3400
I1
aF1.0
asS'guess'
p3401
(lp3402
I2
aF7.5
asS'service'
p3403
(lp3404
I6
aF19.0
asS'friends'
p3405
(lp3406
I1
aF1.0
asS'bite'
p3407
(lp3408
I2
aF8.0
asS'rava dosa'
p3409
(lp3410
I1
aF1.0
asS'bangalore youd'
p3411
(lp3412
I1
aF3.0
asS'rates'
p3413
(lp3414
I1
aF4.5
asS'uthappam'
p3415
(lp3416
I2
aF6.0
asS'waste'
p3417
(lp3418
I1
aF3.5
asS'today'
p3419
(lp3420
I1
aF3.0
asS'tomato'
p3421
(lp3422
I1
aF5.0
asS'stomach'
p3423
(lp3424
I2
aF5.5
asS'option'
p3425
(lp3426
I1
aF1.0
asS'tasteless'
p3427
(lp3428
I1
aF4.5
asS'ghee'
p3429
(lp3430
I1
aF1.0
asS'manchurian'
p3431
(lp3432
I4
aF13.0
asS'heat'
p3433
(lp3434
I1
aF4.0
asS'masala dosa'
p3435
(lp3436
I1
aF4.0
asS'hole'
p3437
(lp3438
I1
aF4.0
asS'hurry'
p3439
(lp3440
I1
aF1.0
asS'costly..'
p3441
(lp3442
I1
aF1.0
asS'mascot'
p3443
(lp3444
I1
aF1.0
asS'powder'
p3445
(lp3446
I1
aF1.0
asS'kind'
p3447
(lp3448
I1
aF2.5
asS'word'
p3449
(lp3450
I1
aF3.0
asS'idli manchurian'
p3451
(lp3452
I1
aF3.0
asS'places'
p3453
(lp3454
I2
aF4.0
asS'versions'
p3455
(lp3456
I1
aF3.0
asS'frozen'
p3457
(lp3458
I1
aF4.0
asS'setup'
p3459
(lp3460
I1
aF3.0
asS'value'
p3461
(lp3462
I2
aF6.5
asS'discernment'
p3463
(lp3464
I1
aF1.0
asS'mall'
p3465
(lp3466
I4
aF8.5
asS'waiters'
p3467
(lp3468
I1
aF1.0
asS'idli fan'
p3469
(lp3470
I1
aF3.0
asS'tasty'
p3471
(lp3472
I1
aF3.5
asS'stale'
p3473
(lp3474
I1
aF4.5
asS'chutneys'
p3475
(lp3476
I3
aF8.0
asS'dining experience'
p3477
(lp3478
I1
aF4.5
asS'colour'
p3479
(lp3480
I1
aF5.0
asS'idli'
p3481
(lp3482
I7
aF18.5
asS'mistake'
p3483
(lp3484
I1
aF1.0
asS'sambar i'
p3485
(lp3486
I1
aF1.0
asS'food.the cashier'
p3487
(lp3488
I1
aF1.0
asS'sambar'
p3489
(lp3490
I5
aF11.0
asS'taste'
p3491
(lp3492
I5
aF12.0
asS'mundane fare'
p3493
(lp3494
I1
aF2.0
asS'mind'
p3495
(lp3496
I1
aF4.5
asS'coffee'
p3497
(lp3498
I1
aF5.0
asS'mulagapudi ghee'
p3499
(lp3500
I1
aF1.0
asS'let downs'
p3501
(lp3502
I1
aF4.0
asS'gopalan signature mall'
p3503
(lp3504
I2
aF8.0
asS'care spending'
p3505
(lp3506
I1
aF3.0
asS'something'
p3507
(lp3508
I1
aF1.0
asS'goodness'
p3509
(lp3510
I1
aF1.0
asS'sense'
p3511
(lp3512
I1
aF1.0
asS'sambar n chutney'
p3513
(lp3514
I1
aF2.5
asS'bucks'
p3515
(lp3516
I1
aF3.0
asS'food outlets'
p3517
(lp3518
I1
aF3.0
asS'dosas'
p3519
(lp3520
I2
aF7.0
asS'onions'
p3521
(lp3522
I2
aF6.0
asS'orders'
p3523
(lp3524
I1
aF4.5
asS'menu items'
p3525
(lp3526
I1
aF2.0
asS'ratings'
p3527
(lp3528
I1
aF3.0
asS'dishes'
p3529
(lp3530
I1
aF4.5
asS'variety'
p3531
(lp3532
I1
aF1.0
asS'things'
p3533
(lp3534
I2
aF6.0
asS'mr. idli'
p3535
(lp3536
I2
aF6.5
asS'tomato sauce'
p3537
(lp3538
I1
aF5.0
asS'roadside'
p3539
(lp3540
I1
aF1.0
asS'resto'
p3541
(lp3542
I1
aF2.0
asS'footfall'
p3543
(lp3544
I1
aF4.5
asS'mr idli'
p3545
(lp3546
I1
aF4.5
asS'kasturi nagar'
p3547
(lp3548
I1
aF1.0
asS'kinds'
p3549
(lp3550
I1
aF2.0
asS'rude'
p3551
(lp3552
I1
aF2.0
asS'price'
p3553
(lp3554
I3
aF11.0
asS'hand'
p3555
(lp3556
I1
aF4.0
asS'mysore'
p3557
(lp3558
I1
aF3.0
asS'courtesy'
p3559
(lp3560
I1
aF1.0
asS'pricy'
p3561
(lp3562
I1
aF4.0
asS'nothing'
p3563
(lp3564
I2
aF9.0
asS'cashier/owner'
p3565
(lp3566
I1
aF4.0
asS'weekend'
p3567
(lp3568
I1
aF2.0
asS'mysore rocket'
p3569
(lp3570
I2
aF7.0
asS'hangout places'
p3571
(lp3572
I1
aF1.0
asS'varieties'
p3573
(lp3574
I2
aF8.5
asS'podi'
p3575
(lp3576
I2
aF8.0
asS'tweaks'
p3577
(lp3578
I1
aF3.5
asS'average'
p3579
(lp3580
I1
aF2.0
asS'onion uthappam'
p3581
(lp3582
I1
aF1.0
asS'eatery'
p3583
(lp3584
I1
aF2.5
asS'options'
p3585
(lp3586
I1
aF3.5
asS'costs'
p3587
(lp3588
I1
aF2.5
asS'gopalan mall'
p3589
(lp3590
I1
aF4.0
asS'time'
p3591
(lp3592
I1
aF1.0
asS'rupees'
p3593
(lp3594
I2
aF6.0
asS'mini idli'
p3595
(lp3596
I1
aF3.5
asS'mast kalandar'
p3597
(lp3598
I1
aF4.5
asS'chol bhature'
p3599
(lp3600
I1
aF1.0
assS'58243'
p3601
(dp3602
S'affair'
p3603
(lp3604
I2
aF8.0
asS'world'
p3605
(lp3606
I2
aF9.0
asS'impression'
p3607
(lp3608
I2
aF8.5
asS'forget'
p3609
(lp3610
I1
aF4.0
asS'chinese'
p3611
(lp3612
I1
aF4.0
asS'hunger'
p3613
(lp3614
I1
aF3.5
asS'cuisines'
p3615
(lp3616
I1
aF4.0
asS'lack'
p3617
(lp3618
I1
aF4.5
asS'meal'
p3619
(lp3620
I1
aF5.0
asS'yellow'
p3621
(lp3622
I2
aF8.0
asS'dimsums'
p3623
(lp3624
I2
aF9.0
asS'course'
p3625
(lp3626
I9
aF36.5
asS'sober shades'
p3627
(lp3628
I2
aF8.0
asS'bakery course'
p3629
(lp3630
I1
aF4.0
asS'dish'
p3631
(lp3632
I3
aF10.0
asS'chicken'
p3633
(lp3634
I6
aF26.5
asS'guava'
p3635
(lp3636
I2
aF8.0
asS'children'
p3637
(lp3638
I1
aF4.0
asS'tuesday.its'
p3639
(lp3640
I1
aF4.5
asS'pad thai'
p3641
(lp3642
I1
aF4.0
asS'pahd chicken'
p3643
(lp3644
I1
aF4.0
asS'satay'
p3645
(lp3646
I3
aF10.0
asS'group'
p3647
(lp3648
I1
aF4.5
asS'koramangla'
p3649
(lp3650
I1
aF4.5
asS'course.the brownie dessert'
p3651
(lp3652
I1
aF5.0
asS'hint'
p3653
(lp3654
I2
aF8.0
asS'basil sauce'
p3655
(lp3656
I1
aF4.0
asS'show'
p3657
(lp3658
I2
aF6.0
asS'expectations'
p3659
(lp3660
I4
aF13.5
asS'improvement'
p3661
(lp3662
I1
aF4.5
asS'starters'
p3663
(lp3664
I7
aF28.5
asS'spread'
p3665
(lp3666
I1
aF3.5
asS'veg dishes'
p3667
(lp3668
I1
aF4.5
asS'pretty'
p3669
(lp3670
I1
aF4.5
asS'restaurant management'
p3671
(lp3672
I1
aF4.5
asS'ambience'
p3673
(lp3674
I9
aF37.0
asS'glass wall'
p3675
(lp3676
I2
aF8.0
asS'rice'
p3677
(lp3678
I7
aF27.0
asS'sauce'
p3679
(lp3680
I2
aF9.0
asS'spicy taste'
p3681
(lp3682
I1
aF4.5
asS'veg dimsum platter'
p3683
(lp3684
I1
aF4.5
asS'washroom'
p3685
(lp3686
I2
aF8.0
asS'brown'
p3687
(lp3688
I2
aF8.0
asS'orange'
p3689
(lp3690
I2
aF8.0
asS'evening'
p3691
(lp3692
I2
aF6.0
asS'food'
p3693
(lp3694
I10
aF39.0
asS'dessert'
p3695
(lp3696
I2
aF6.5
asS'baby corn signature starter'
p3697
(lp3698
I1
aF5.0
asS'goreng'
p3699
(lp3700
I2
aF6.0
asS'penny'
p3701
(lp3702
I1
aF4.5
asS'colleagues'
p3703
(lp3704
I1
aF4.0
asS'traffic'
p3705
(lp3706
I1
aF5.0
asS'lunch'
p3707
(lp3708
I6
aF26.5
asS'goreng chicken'
p3709
(lp3710
I1
aF4.0
asS'batter'
p3711
(lp3712
I1
aF3.5
asS'nasi goreng'
p3713
(lp3714
I2
aF6.0
asS'flavour'
p3715
(lp3716
I5
aF18.5
asS'prawn dimsums'
p3717
(lp3718
I1
aF4.5
asS'scrolling'
p3719
(lp3720
I1
aF4.5
asS'meat'
p3721
(lp3722
I2
aF6.0
asS'tim tie'
p3723
(lp3724
I1
aF3.5
asS'places'
p3725
(lp3726
I3
aF10.0
asS'weekend lunch'
p3727
(lp3728
I2
aF8.0
asS'level'
p3729
(lp3730
I1
aF4.5
asS'apple som tam'
p3731
(lp3732
I2
aF8.5
asS'stir'
p3733
(lp3734
I1
aF4.0
asS'crunchy'
p3735
(lp3736
I2
aF9.0
asS'vibes'
p3737
(lp3738
I2
aF8.0
asS'spicy stuff'
p3739
(lp3740
I1
aF3.5
asS'takeaway i'
p3741
(lp3742
I1
aF4.0
asS'setups'
p3743
(lp3744
I1
aF4.5
asS'bunch'
p3745
(lp3746
I1
aF4.0
asS'place..mandarin feast'
p3747
(lp3748
I1
aF4.0
asS'side'
p3749
(lp3750
I3
aF12.5
asS'fritter'
p3751
(lp3752
I1
aF3.5
asS'basil dimsum'
p3753
(lp3754
I2
aF8.5
asS'seating'
p3755
(lp3756
I1
aF4.0
asS'momos'
p3757
(lp3758
I2
aF8.0
asS'people'
p3759
(lp3760
I1
aF5.0
asS'staff'
p3761
(lp3762
I3
aF14.0
asS'fish'
p3763
(lp3764
I3
aF13.0
asS'tim tia'
p3765
(lp3766
I1
aF4.0
asS'ambiance'
p3767
(lp3768
I3
aF11.0
asS'somehow'
p3769
(lp3770
I1
aF3.5
asS'relative'
p3771
(lp3772
I1
aF4.0
asS'flavours'
p3773
(lp3774
I3
aF12.5
asS'shanghai noodles'
p3775
(lp3776
I1
aF5.0
asS'yum soup'
p3777
(lp3778
I3
aF13.0
asS'crab meat'
p3779
(lp3780
I1
aF3.5
asS'noodles'
p3781
(lp3782
I6
aF25.5
asS'appetite'
p3783
(lp3784
I1
aF4.0
asS'ice cream'
p3785
(lp3786
I3
aF11.5
asS'drinks'
p3787
(lp3788
I7
aF26.5
asS'reviews'
p3789
(lp3790
I1
aF4.5
asS'turn'
p3791
(lp3792
I1
aF4.5
asS'satay platter'
p3793
(lp3794
I2
aF6.0
asS'soup'
p3795
(lp3796
I3
aF12.0
asS'lots'
p3797
(lp3798
I2
aF8.0
asS'memories'
p3799
(lp3800
I1
aF3.0
asS'setup doesnt'
p3801
(lp3802
I1
aF4.0
asS'comments'
p3803
(lp3804
I2
aF8.0
asS'rolls'
p3805
(lp3806
I1
aF5.0
asS'liveliness'
p3807
(lp3808
I2
aF8.0
asS'everything'
p3809
(lp3810
I1
aF4.0
asS'experience total'
p3811
(lp3812
I1
aF4.0
asS'score'
p3813
(lp3814
I1
aF4.5
asS'dimsum'
p3815
(lp3816
I1
aF4.0
asS'surprise'
p3817
(lp3818
I1
aF4.0
asS'barbecue chicken buns'
p3819
(lp3820
I1
aF4.0
asS'chili'
p3821
(lp3822
I1
aF4.0
asS'price'
p3823
(lp3824
I1
aF4.5
asS'basil'
p3825
(lp3826
I2
aF8.0
asS'satisfy'
p3827
(lp3828
I1
aF3.5
asS'chilli corriander noodles'
p3829
(lp3830
I2
aF9.0
asS'terms'
p3831
(lp3832
I2
aF8.0
asS'taste buds'
p3833
(lp3834
I1
aF4.0
asS'cauliflower'
p3835
(lp3836
I1
aF4.0
asS'aaaaand i'
p3837
(lp3838
I1
aF4.5
asS'mandarin feast'
p3839
(lp3840
I4
aF14.0
asS'food street'
p3841
(lp3842
I1
aF5.0
asS'stem'
p3843
(lp3844
I4
aF17.5
asS'hours'
p3845
(lp3846
I1
aF4.0
asS'faults'
p3847
(lp3848
I1
aF4.5
asS'reason'
p3849
(lp3850
I2
aF8.0
asS'cuisinewe'
p3851
(lp3852
I1
aF5.0
asS'skewer'
p3853
(lp3854
I2
aF6.0
asS'vegetarians'
p3855
(lp3856
I1
aF5.0
asS'spinach gau dimsums werent'
p3857
(lp3858
I1
aF4.5
asS'raspberry'
p3859
(lp3860
I1
aF4.5
asS'tabasco'
p3861
(lp3862
I2
aF8.0
asS'advance'
p3863
(lp3864
I1
aF4.0
asS'kids'
p3865
(lp3866
I2
aF7.5
asS'bean sauce'
p3867
(lp3868
I1
aF4.0
asS'compote'
p3869
(lp3870
I1
aF3.5
asS'restaurant'
p3871
(lp3872
I7
aF27.5
asS'waiter'
p3873
(lp3874
I2
aF6.0
asS'items'
p3875
(lp3876
I1
aF4.0
asS'days'
p3877
(lp3878
I1
aF3.0
asS'experience'
p3879
(lp3880
I3
aF13.5
asS'times'
p3881
(lp3882
I2
aF9.0
asS'blueberry compote didnt help'
p3883
(lp3884
I1
aF3.5
asS'dinner'
p3885
(lp3886
I1
aF4.5
asS'afternoon'
p3887
(lp3888
I2
aF8.0
asS'place'
p3889
(lp3890
I19
aF77.0
asS'disappointment'
p3891
(lp3892
I2
aF7.5
asS'crispy'
p3893
(lp3894
I2
aF8.5
asS'detour'
p3895
(lp3896
I1
aF4.5
asS'floor'
p3897
(lp3898
I1
aF4.5
asS'lunch i'
p3899
(lp3900
I1
aF4.5
asS'restaurants'
p3901
(lp3902
I4
aF14.0
asS'whole'
p3903
(lp3904
I1
aF4.0
asS'block'
p3905
(lp3906
I1
aF4.5
asS'crunchy peanuts'
p3907
(lp3908
I2
aF9.0
asS'spicy soya'
p3909
(lp3910
I2
aF8.5
asS'appetizers'
p3911
(lp3912
I1
aF4.0
asS'love'
p3913
(lp3914
I1
aF4.0
asS'apple'
p3915
(lp3916
I2
aF8.0
asS'family'
p3917
(lp3918
I1
aF4.0
asS'sweet'
p3919
(lp3920
I1
aF4.5
asS'> rahul dsouza'
p3921
(lp3922
I1
aF4.5
asS'tofu'
p3923
(lp3924
I1
aF4.5
asS'barbecue bun'
p3925
(lp3926
I1
aF4.0
asS'fritters'
p3927
(lp3928
I1
aF3.5
asS'names'
p3929
(lp3930
I2
aF8.0
asS'soya dimsums'
p3931
(lp3932
I1
aF4.0
asS'hide cafe'
p3933
(lp3934
I1
aF4.5
asS'table'
p3935
(lp3936
I4
aF18.0
asS'shoots'
p3937
(lp3938
I1
aF4.0
asS'family restaurant'
p3939
(lp3940
I1
aF4.5
asS'leeks'
p3941
(lp3942
I2
aF8.0
asS'adults'
p3943
(lp3944
I1
aF4.0
asS'question'
p3945
(lp3946
I1
aF4.0
asS'light'
p3947
(lp3948
I2
aF8.0
asS'mango salad'
p3949
(lp3950
I1
aF4.0
asS'service'
p3951
(lp3952
I10
aF40.5
asS'area'
p3953
(lp3954
I5
aF18.5
asS'fusion place'
p3955
(lp3956
I1
aF4.0
asS'vegetables'
p3957
(lp3958
I3
aF12.0
asS'visit'
p3959
(lp3960
I2
aF8.0
asS'weekdays'
p3961
(lp3962
I1
aF5.0
asS'mark'
p3963
(lp3964
I3
aF10.0
asS'valet'
p3965
(lp3966
I1
aF4.0
asS'taste'
p3967
(lp3968
I6
aF23.5
asS'thai cuisine'
p3969
(lp3970
I1
aF4.0
asS'apple fritters'
p3971
(lp3972
I1
aF3.5
asS'dimsum platter'
p3973
(lp3974
I3
aF13.0
asS'notices'
p3975
(lp3976
I1
aF4.5
asS'downside'
p3977
(lp3978
I1
aF4.0
asS'restrooms'
p3979
(lp3980
I1
aF4.5
asS'mary'
p3981
(lp3982
I5
aF20.0
asS'friend'
p3983
(lp3984
I2
aF6.0
asS'treat'
p3985
(lp3986
I2
aF9.0
asS'thai..hakka noodles'
p3987
(lp3988
I1
aF4.0
asS'entrance'
p3989
(lp3990
I3
aF13.0
asS'spicy'
p3991
(lp3992
I3
aF13.0
asS'females'
p3993
(lp3994
I1
aF4.5
asS'thing'
p3995
(lp3996
I4
aF17.0
asS'rest'
p3997
(lp3998
I1
aF4.5
asS'chilli'
p3999
(lp4000
I1
aF4.0
asS'something'
p4001
(lp4002
I2
aF7.0
asS'fillets'
p4003
(lp4004
I1
aF4.0
asS'preparations'
p4005
(lp4006
I1
aF4.0
asS'photos'
p4007
(lp4008
I2
aF8.0
asS'part'
p4009
(lp4010
I3
aF13.5
asS'brain'
p4011
(lp4012
I2
aF6.0
asS'catalyst'
p4013
(lp4014
I2
aF8.0
asS'spring rolls'
p4015
(lp4016
I1
aF4.0
asS'zomato ratings'
p4017
(lp4018
I1
aF4.0
asS'som tum thai'
p4019
(lp4020
I1
aF4.5
asS'thai'
p4021
(lp4022
I6
aF24.5
asS'starter'
p4023
(lp4024
I2
aF6.0
asS'center'
p4025
(lp4026
I2
aF8.0
asS'kind'
p4027
(lp4028
I2
aF9.0
asS'mandarin drink everything'
p4029
(lp4030
I2
aF8.0
asS'portions'
p4031
(lp4032
I3
aF13.0
asS'anything'
p4033
(lp4034
I1
aF4.5
asS'salad'
p4035
(lp4036
I1
aF4.5
asS'succelent'
p4037
(lp4038
I2
aF9.0
asS'interiors'
p4039
(lp4040
I1
aF4.0
asS'work'
p4041
(lp4042
I1
aF3.5
asS'tree'
p4043
(lp4044
I3
aF11.5
asS'lady love'
p4045
(lp4046
I2
aF8.0
asS'regrets'
p4047
(lp4048
I1
aF4.0
asS'dint'
p4049
(lp4050
I1
aF4.5
asS'tummy'
p4051
(lp4052
I2
aF8.0
asS'sweeter'
p4053
(lp4054
I1
aF3.5
asS'lover'
p4055
(lp4056
I1
aF3.5
asS'cake'
p4057
(lp4058
I1
aF4.0
asS'balance'
p4059
(lp4060
I1
aF4.5
asS'amount'
p4061
(lp4062
I1
aF4.0
asS'feeling'
p4063
(lp4064
I1
aF4.0
asS'veggies'
p4065
(lp4066
I3
aF10.5
asS'bamee goreng noodles'
p4067
(lp4068
I1
aF4.0
asS'indonesia'
p4069
(lp4070
I1
aF3.0
asS'mini waterfall'
p4071
(lp4072
I2
aF8.0
asS'peanut sauce'
p4073
(lp4074
I2
aF6.0
asS'tim tai'
p4075
(lp4076
I7
aF27.5
asS'dumplings'
p4077
(lp4078
I2
aF8.0
asS'ringer'
p4079
(lp4080
I1
aF4.0
asS'bamee noodles'
p4081
(lp4082
I1
aF3.0
asS'mind'
p4083
(lp4084
I2
aF8.5
asS'dinner outing'
p4085
(lp4086
I1
aF4.5
asS'pieces'
p4087
(lp4088
I1
aF4.5
asS'middle'
p4089
(lp4090
I1
aF3.5
asS'shanghai chicken dimsum'
p4091
(lp4092
I1
aF3.5
asS'sharing'
p4093
(lp4094
I1
aF4.5
asS'thai curry vd rice'
p4095
(lp4096
I1
aF4.0
asS'mushroom satay'
p4097
(lp4098
I1
aF4.0
asS'crabmeat omelet'
p4099
(lp4100
I1
aF3.5
asS'sambal'
p4101
(lp4102
I1
aF4.5
asS'bit cos'
p4103
(lp4104
I1
aF4.0
asS'onions'
p4105
(lp4106
I1
aF3.0
asS'theres'
p4107
(lp4108
I1
aF4.5
asS'tea flavour'
p4109
(lp4110
I1
aF4.0
asS'pink'
p4111
(lp4112
I2
aF8.5
asS'cuisine'
p4113
(lp4114
I1
aF3.0
asS'decor'
p4115
(lp4116
I7
aF29.5
asS'inside'
p4117
(lp4118
I2
aF9.0
asS'shanghai chicken dimsums'
p4119
(lp4120
I1
aF4.0
asS'dishes'
p4121
(lp4122
I6
aF25.5
asS'caption'
p4123
(lp4124
I2
aF8.0
asS'things'
p4125
(lp4126
I2
aF8.5
asS'kung pao chicken'
p4127
(lp4128
I2
aF9.0
asS'water'
p4129
(lp4130
I1
aF4.5
asS'feature'
p4131
(lp4132
I2
aF6.0
asS'someone'
p4133
(lp4134
I1
aF4.0
asS'note'
p4135
(lp4136
I1
aF4.5
asS'moist'
p4137
(lp4138
I1
aF4.5
asS'setting'
p4139
(lp4140
I1
aF3.5
asS'marination'
p4141
(lp4142
I1
aF4.5
asS'disappoint'
p4143
(lp4144
I1
aF4.0
asS'establishment'
p4145
(lp4146
I2
aF8.0
asS'pepper sauce'
p4147
(lp4148
I2
aF8.0
asS'grandeur'
p4149
(lp4150
I1
aF4.5
asS'cinnamon'
p4151
(lp4152
I2
aF8.0
asS'koramangala'
p4153
(lp4154
I1
aF4.0
asS'lamb'
p4155
(lp4156
I5
aF20.5
asS'gravy'
p4157
(lp4158
I1
aF4.0
asS'delhi'
p4159
(lp4160
I1
aF4.0
asS'star'
p4161
(lp4162
I2
aF6.0
asS'beauty'
p4163
(lp4164
I2
aF8.0
asS'mussaman curry'
p4165
(lp4166
I1
aF4.0
asS'senses'
p4167
(lp4168
I1
aF4.0
asS'welcome'
p4169
(lp4170
I1
aF3.5
asS'cause i'
p4171
(lp4172
I1
aF4.5
asS'bent'
p4173
(lp4174
I1
aF4.5
asS'waterfall'
p4175
(lp4176
I2
aF8.0
asS'garlic'
p4177
(lp4178
I1
aF3.0
asS'plan'
p4179
(lp4180
I1
aF4.0
asS'favorites'
p4181
(lp4182
I1
aF4.0
asS'honey chilli'
p4183
(lp4184
I3
aF13.0
asS'reservation'
p4185
(lp4186
I2
aF8.0
asS'friends'
p4187
(lp4188
I4
aF16.0
asS'desert'
p4189
(lp4190
I1
aF4.0
asS'types'
p4191
(lp4192
I1
aF4.5
asS'pocket'
p4193
(lp4194
I1
aF4.5
asS'entrees'
p4195
(lp4196
I1
aF4.0
asS'peach'
p4197
(lp4198
I2
aF8.0
asS'curry'
p4199
(lp4200
I4
aF16.0
asS'grass'
p4201
(lp4202
I6
aF23.0
asS'beverage'
p4203
(lp4204
I2
aF6.0
asS'time'
p4205
(lp4206
I5
aF18.5
asS'basket'
p4207
(lp4208
I2
aF8.0
asS'tim tai doesnt disappoint'
p4209
(lp4210
I1
aF4.0
asS'couldnt'
p4211
(lp4212
I1
aF4.5
asS'salt'
p4213
(lp4214
I1
aF3.5
asS'order'
p4215
(lp4216
I6
aF23.0
asS'fact'
p4217
(lp4218
I2
aF6.0
asS'perfection'
p4219
(lp4220
I3
aF13.0
assS'58576'
p4221
(dp4222
S'rating'
p4223
(lp4224
I3
aF13.0
asS'dishes.food'
p4225
(lp4226
I1
aF4.5
asS'melts'
p4227
(lp4228
I1
aF5.0
asS'money'
p4229
(lp4230
I5
aF23.0
asS'dosa'
p4231
(lp4232
I8
aF37.5
asS'cheap'
p4233
(lp4234
I1
aF4.5
asS'rest'
p4235
(lp4236
I1
aF5.0
asS'dose'
p4237
(lp4238
I1
aF5.0
asS'brain'
p4239
(lp4240
I1
aF5.0
asS'myt wonder dat'
p4241
(lp4242
I1
aF5.0
asS'lassi'
p4243
(lp4244
I1
aF4.0
asS'food wise'
p4245
(lp4246
I2
aF9.5
asS'staff'
p4247
(lp4248
I2
aF9.5
asS'food joints'
p4249
(lp4250
I2
aF8.5
asS'menu'
p4251
(lp4252
I6
aF28.5
asS'food quicker'
p4253
(lp4254
I2
aF9.5
asS'tea/bournvita'
p4255
(lp4256
I1
aF5.0
asS'rs masala'
p4257
(lp4258
I1
aF4.5
asS'ghee'
p4259
(lp4260
I3
aF14.0
asS'bests'
p4261
(lp4262
I1
aF5.0
asS'food doesnt'
p4263
(lp4264
I2
aF9.5
asS'process hassle'
p4265
(lp4266
I1
aF5.0
asS'coffee'
p4267
(lp4268
I7
aF33.5
asS'chow chow bath'
p4269
(lp4270
I2
aF9.5
asS'dosa yumm'
p4271
(lp4272
I1
aF4.5
asS'tasty food'
p4273
(lp4274
I1
aF5.0
asS'advantage'
p4275
(lp4276
I2
aF8.5
asS'food'
p4277
(lp4278
I17
aF80.0
asS'coconut chutney'
p4279
(lp4280
I1
aF4.5
asS'speechless'
p4281
(lp4282
I1
aF5.0
asS'pocket'
p4283
(lp4284
I1
aF4.0
asS'lunch'
p4285
(lp4286
I1
aF4.0
asS'ones'
p4287
(lp4288
I1
aF5.0
asS'perfection'
p4289
(lp4290
I2
aF9.5
asS'tuppa'
p4291
(lp4292
I1
aF5.0
asS'making peopleopt'
p4293
(lp4294
I2
aF8.5
asS'chutney'
p4295
(lp4296
I7
aF32.5
asS'grey cells'
p4297
(lp4298
I1
aF5.0
asS'processes'
p4299
(lp4300
I1
aF5.0
asS'kesari bath'
p4301
(lp4302
I1
aF5.0
asS'level'
p4303
(lp4304
I3
aF14.5
asS'courteous.tip'
p4305
(lp4306
I1
aF5.0
asS'queues'
p4307
(lp4308
I2
aF9.5
asS'crunchy'
p4309
(lp4310
I1
aF4.5
asS'hygiene'
p4311
(lp4312
I1
aF4.5
asS'moth'
p4313
(lp4314
I1
aF4.5
asS'morning'
p4315
(lp4316
I1
aF5.0
asS'tangy lemony chutney'
p4317
(lp4318
I1
aF5.0
asS'star dish'
p4319
(lp4320
I1
aF5.0
asS'again.ambiance'
p4321
(lp4322
I1
aF4.5
asS'cholesterol'
p4323
(lp4324
I1
aF5.0
asS'quick'
p4325
(lp4326
I1
aF4.5
asS'counters'
p4327
(lp4328
I3
aF14.0
asS'kitchen clothing'
p4329
(lp4330
I1
aF4.5
asS'meal'
p4331
(lp4332
I1
aF4.5
asS'dishwashers'
p4333
(lp4334
I1
aF4.5
asS'food quality'
p4335
(lp4336
I1
aF4.0
asS'crowd'
p4337
(lp4338
I7
aF33.5
asS'people'
p4339
(lp4340
I7
aF33.0
asS'fluffy'
p4341
(lp4342
I1
aF5.0
asS'weekend queue'
p4343
(lp4344
I1
aF5.0
asS'ambiance'
p4345
(lp4346
I2
aF9.0
asS'yeah'
p4347
(lp4348
I1
aF4.5
asS'ok..went'
p4349
(lp4350
I1
aF4.5
asS'flavours.service'
p4351
(lp4352
I1
aF5.0
asS'rate'
p4353
(lp4354
I2
aF9.5
asS'cost'
p4355
(lp4356
I2
aF8.5
asS'pricing'
p4357
(lp4358
I2
aF10.0
asS'parking'
p4359
(lp4360
I1
aF4.5
asS'idlis'
p4361
(lp4362
I2
aF10.0
asS'divine'
p4363
(lp4364
I1
aF4.5
asS'machines'
p4365
(lp4366
I1
aF4.5
asS'reviews'
p4367
(lp4368
I1
aF5.0
asS'vada'
p4369
(lp4370
I9
aF42.0
asS'cups'
p4371
(lp4372
I1
aF5.0
asS'dosa/idli'
p4373
(lp4374
I1
aF4.5
asS'movie'
p4375
(lp4376
I1
aF4.0
asS'quality'
p4377
(lp4378
I1
aF4.5
asS'everything'
p4379
(lp4380
I3
aF14.0
asS'finger'
p4381
(lp4382
I1
aF4.5
asS'i stay'
p4383
(lp4384
I1
aF4.5
asS'mosambi juice'
p4385
(lp4386
I1
aF4.0
asS'affordable'
p4387
(lp4388
I1
aF4.5
asS'shakes'
p4389
(lp4390
I1
aF5.0
asS'coffee cost'
p4391
(lp4392
I1
aF4.5
asS'thindi'
p4393
(lp4394
I1
aF4.5
asS'hundreds'
p4395
(lp4396
I2
aF8.5
asS'order.taste'
p4397
(lp4398
I1
aF5.0
asS'hype'
p4399
(lp4400
I1
aF4.5
asS'reason'
p4401
(lp4402
I2
aF8.5
asS'price cut'
p4403
(lp4404
I2
aF8.5
asS'worthy'
p4405
(lp4406
I1
aF5.0
asS'bangalore'
p4407
(lp4408
I7
aF33.0
asS'super'
p4409
(lp4410
I2
aF9.5
asS'duet'
p4411
(lp4412
I1
aF4.5
asS'coupons'
p4413
(lp4414
I1
aF5.0
asS'chowchow bath'
p4415
(lp4416
I1
aF5.0
asS'restaurant'
p4417
(lp4418
I3
aF13.5
asS'decent.one'
p4419
(lp4420
I1
aF5.0
asS'items'
p4421
(lp4422
I1
aF4.5
asS'experience'
p4423
(lp4424
I6
aF27.5
asS'crispy vadas'
p4425
(lp4426
I1
aF4.5
asS'queue'
p4427
(lp4428
I8
aF38.0
asS'thing'
p4429
(lp4430
I1
aF5.0
asS'amount'
p4431
(lp4432
I1
aF5.0
asS'sonu'
p4433
(lp4434
I1
aF5.0
asS'place'
p4435
(lp4436
I20
aF92.5
asS'weekday'
p4437
(lp4438
I1
aF4.5
asS'hence'
p4439
(lp4440
I2
aF9.5
asS'plate idli vada'
p4441
(lp4442
I1
aF4.5
asS'disappears'
p4443
(lp4444
I1
aF4.5
asS'options'
p4445
(lp4446
I1
aF5.0
asS'south'
p4447
(lp4448
I1
aF4.5
asS'min approx'
p4449
(lp4450
I1
aF5.0
asS'vadas'
p4451
(lp4452
I1
aF5.0
asS'wala'
p4453
(lp4454
I1
aF4.5
asS'supply'
p4455
(lp4456
I1
aF4.5
asS'coupon'
p4457
(lp4458
I3
aF14.5
asS'patience'
p4459
(lp4460
I2
aF10.0
asS'bath'
p4461
(lp4462
I4
aF18.0
asS'bhat'
p4463
(lp4464
I1
aF4.5
asS'rs idli'
p4465
(lp4466
I1
aF4.5
asS'crowd i'
p4467
(lp4468
I2
aF10.0
asS'respect'
p4469
(lp4470
I1
aF4.5
asS'watermelon juice'
p4471
(lp4472
I1
aF4.0
asS'fight'
p4473
(lp4474
I1
aF5.0
asS'forget'
p4475
(lp4476
I1
aF5.0
asS'thing u'
p4477
(lp4478
I1
aF4.5
asS'service'
p4479
(lp4480
I4
aF18.0
asS'dosa counters'
p4481
(lp4482
I1
aF5.0
asS'visit'
p4483
(lp4484
I1
aF4.5
asS'place doesnt'
p4485
(lp4486
I1
aF5.0
asS'mark'
p4487
(lp4488
I1
aF4.5
asS'process'
p4489
(lp4490
I1
aF5.0
asS'veena stores'
p4491
(lp4492
I3
aF14.5
asS'dosa i'
p4493
(lp4494
I1
aF5.0
asS'maintenance'
p4495
(lp4496
I1
aF5.0
asS'waste'
p4497
(lp4498
I1
aF4.5
asS'filter'
p4499
(lp4500
I1
aF5.0
asS'friend'
p4501
(lp4502
I2
aF8.5
asS'food places'
p4503
(lp4504
I1
aF4.5
asS'star restaurant'
p4505
(lp4506
I1
aF5.0
asS'stomach'
p4507
(lp4508
I1
aF5.0
asS'upma'
p4509
(lp4510
I1
aF4.5
asS'mins.value'
p4511
(lp4512
I1
aF5.0
asS'quantities'
p4513
(lp4514
I1
aF4.5
asS'tidy'
p4515
(lp4516
I2
aF8.5
asS'lemony flavour'
p4517
(lp4518
I1
aF5.0
asS'award'
p4519
(lp4520
I1
aF4.5
asS'part'
p4521
(lp4522
I4
aF19.0
asS'flavor.neat'
p4523
(lp4524
I1
aF4.0
asS'prices'
p4525
(lp4526
I2
aF9.5
asS'masala dosa'
p4527
(lp4528
I10
aF47.0
asS'line'
p4529
(lp4530
I3
aF14.5
asS'pm .its'
p4531
(lp4532
I1
aF4.5
asS'kharabath'
p4533
(lp4534
I1
aF4.5
asS'inside'
p4535
(lp4536
I1
aF4.5
asS'fries'
p4537
(lp4538
I1
aF5.0
asS'cash'
p4539
(lp4540
I1
aF5.0
asS'food items.it'
p4541
(lp4542
I1
aF4.5
asS'patience pays'
p4543
(lp4544
I1
aF5.0
asS'zomato'
p4545
(lp4546
I4
aF17.5
asS'tasty'
p4547
(lp4548
I1
aF4.5
asS'rs vada'
p4549
(lp4550
I1
aF4.5
asS'breakfast hub'
p4551
(lp4552
I1
aF5.0
asS'didnt'
p4553
(lp4554
I1
aF4.0
asS'idli'
p4555
(lp4556
I7
aF33.5
asS'something'
p4557
(lp4558
I2
aF9.0
asS'sambar'
p4559
(lp4560
I1
aF4.5
asS'taste'
p4561
(lp4562
I2
aF9.0
asS'sterilizer'
p4563
(lp4564
I1
aF5.0
asS'mind'
p4565
(lp4566
I6
aF29.5
asS'life'
p4567
(lp4568
I3
aF13.0
asS'waiting time'
p4569
(lp4570
I1
aF4.5
asS'hygience'
p4571
(lp4572
I1
aF5.0
asS'manner'
p4573
(lp4574
I1
aF4.5
asS'need'
p4575
(lp4576
I2
aF9.5
asS'bucks'
p4577
(lp4578
I3
aF15.0
asS'breakfast'
p4579
(lp4580
I3
aF13.5
asS'dosas'
p4581
(lp4582
I3
aF13.5
asS'ratings'
p4583
(lp4584
I1
aF4.5
asS'filter coffee'
p4585
(lp4586
I2
aF9.0
asS'dishes'
p4587
(lp4588
I2
aF9.0
asS'jayanagar'
p4589
(lp4590
I2
aF10.0
asS'things'
p4591
(lp4592
I1
aF4.5
asS'sevice'
p4593
(lp4594
I2
aF8.5
asS'packed'
p4595
(lp4596
I1
aF5.0
asS'tastewise i'
p4597
(lp4598
I1
aF5.0
asS'thought ill'
p4599
(lp4600
I2
aF9.5
asS'yummy breakfast'
p4601
(lp4602
I1
aF4.5
asS'khara bath'
p4603
(lp4604
I2
aF8.5
asS'morning time'
p4605
(lp4606
I1
aF4.5
asS'price'
p4607
(lp4608
I5
aF22.5
asS'time'
p4609
(lp4610
I4
aF20.0
asS'delicacy'
p4611
(lp4612
I2
aF9.5
asS'payment counter'
p4613
(lp4614
I1
aF5.0
asS'mouth'
p4615
(lp4616
I2
aF9.5
asS'cleaning'
p4617
(lp4618
I1
aF5.0
asS'jayanagar outlet'
p4619
(lp4620
I1
aF5.0
asS'friends'
p4621
(lp4622
I1
aF4.5
asS'cycle'
p4623
(lp4624
I2
aF9.5
asS'them.it'
p4625
(lp4626
I1
aF4.5
asS'joint'
p4627
(lp4628
I2
aF8.5
asS'counter'
p4629
(lp4630
I2
aF9.5
asS'business strategy'
p4631
(lp4632
I2
aF8.5
asS'breakfast food'
p4633
(lp4634
I1
aF4.5
asS'queue system'
p4635
(lp4636
I1
aF5.0
asS'sambhar'
p4637
(lp4638
I1
aF4.5
asS'points'
p4639
(lp4640
I1
aF5.0
asS'clean'
p4641
(lp4642
I2
aF9.5
asS'pineapple'
p4643
(lp4644
I1
aF5.0
asS'rupees'
p4645
(lp4646
I1
aF4.5
asS'taaza thindi'
p4647
(lp4648
I1
aF4.5
asS'order'
p4649
(lp4650
I3
aF14.5
asS'quantity'
p4651
(lp4652
I3
aF13.5
assS'52098'
p4653
(dp4654
S'evening..'
p4655
(lp4656
I1
aF4.5
asS'train means'
p4657
(lp4658
I1
aF4.5
asS'aroma'
p4659
(lp4660
I1
aF4.5
asS'course'
p4661
(lp4662
I1
aF4.5
asS'idlies'
p4663
(lp4664
I1
aF5.0
asS'filter coffee tastes'
p4665
(lp4666
I1
aF4.0
asS'counter.this place'
p4667
(lp4668
I1
aF5.0
asS'discipline'
p4669
(lp4670
I1
aF5.0
asS'tables'
p4671
(lp4672
I1
aF3.5
asS'snack'
p4673
(lp4674
I1
aF4.5
asS'brahmins coffee bar'
p4675
(lp4676
I2
aF9.5
asS'everything'
p4677
(lp4678
I3
aF14.5
asS'menu'
p4679
(lp4680
I3
aF14.0
asS'place u'
p4681
(lp4682
I1
aF5.0
asS'character'
p4683
(lp4684
I1
aF5.0
asS'calibre'
p4685
(lp4686
I1
aF4.5
asS'breakfast joints'
p4687
(lp4688
I1
aF5.0
asS'food heavenly..'
p4689
(lp4690
I1
aF5.0
asS'banglorian'
p4691
(lp4692
I1
aF5.0
asS'ghee'
p4693
(lp4694
I1
aF4.0
asS'ambience'
p4695
(lp4696
I2
aF9.5
asS'crispy vada'
p4697
(lp4698
I1
aF4.5
asS'case'
p4699
(lp4700
I1
aF4.5
asS'coffee'
p4701
(lp4702
I5
aF23.0
asS'food'
p4703
(lp4704
I5
aF24.0
asS'coconut chutney'
p4705
(lp4706
I1
aF3.5
asS'pocket'
p4707
(lp4708
I2
aF8.5
asS'taza thindi'
p4709
(lp4710
I1
aF4.5
asS'outlet'
p4711
(lp4712
I1
aF4.5
asS'words'
p4713
(lp4714
I1
aF4.5
asS'place alot'
p4715
(lp4716
I1
aF4.5
asS'combinations'
p4717
(lp4718
I1
aF4.5
asS'vada youll eat'
p4719
(lp4720
I1
aF3.5
asS'provision'
p4721
(lp4722
I1
aF4.5
asS'chutney'
p4723
(lp4724
I10
aF44.5
asS'opening time'
p4725
(lp4726
I1
aF4.5
asS'spicy chutney'
p4727
(lp4728
I1
aF4.5
asS'school'
p4729
(lp4730
I1
aF4.5
asS'crisp'
p4731
(lp4732
I1
aF5.0
asS'bestest'
p4733
(lp4734
I1
aF3.5
asS'chatni'
p4735
(lp4736
I1
aF5.0
asS'coorg'
p4737
(lp4738
I1
aF4.0
asS'serves'
p4739
(lp4740
I1
aF4.5
asS'morning'
p4741
(lp4742
I1
aF4.5
asS'chutney refills'
p4743
(lp4744
I1
aF3.5
asS'word u'
p4745
(lp4746
I1
aF4.5
asS'meal'
p4747
(lp4748
I2
aF9.0
asS'seating'
p4749
(lp4750
I1
aF4.5
asS'people'
p4751
(lp4752
I2
aF9.5
asS'energy'
p4753
(lp4754
I1
aF4.5
asS'\xf0\x9f\x98\x98\xf0\x9f\x98\x98\xf0\x9f\x98\x98\xf0\x9f\x98\x98'
p4755
(lp4756
I1
aF4.5
asS'idlis'
p4757
(lp4758
I5
aF22.5
asS'home'
p4759
(lp4760
I1
aF4.0
asS'vada'
p4761
(lp4762
I6
aF28.0
asS'space'
p4763
(lp4764
I1
aF3.5
asS'cleanliness'
p4765
(lp4766
I1
aF5.0
asS'lights'
p4767
(lp4768
I1
aF4.5
asS'mouth.the vada'
p4769
(lp4770
I1
aF4.0
asS'destinations'
p4771
(lp4772
I2
aF10.0
asS'breakfast..heard'
p4773
(lp4774
I1
aF5.0
asS'side'
p4775
(lp4776
I1
aF4.5
asS'bangalore..'
p4777
(lp4778
I1
aF5.0
asS'terms'
p4779
(lp4780
I1
aF5.0
asS'thindi'
p4781
(lp4782
I1
aF4.5
asS'morning idli'
p4783
(lp4784
I1
aF4.5
asS'reason'
p4785
(lp4786
I1
aF5.0
asS'.cheers'
p4787
(lp4788
I1
aF5.0
asS'crisp vadas'
p4789
(lp4790
I1
aF4.5
asS'bangalore'
p4791
(lp4792
I7
aF34.0
asS'self service'
p4793
(lp4794
I1
aF3.5
asS'brown'
p4795
(lp4796
I1
aF5.0
asS'items'
p4797
(lp4798
I2
aF9.5
asS'times'
p4799
(lp4800
I3
aF12.5
asS'cuisine lover'
p4801
(lp4802
I1
aF5.0
asS'place'
p4803
(lp4804
I20
aF92.5
asS'places'
p4805
(lp4806
I1
aF4.5
asS'chutney u'
p4807
(lp4808
I1
aF5.0
asS'mouth'
p4809
(lp4810
I3
aF13.5
asS'road'
p4811
(lp4812
I1
aF3.5
asS'bath'
p4813
(lp4814
I4
aF19.5
asS'gooood'
p4815
(lp4816
I1
aF4.5
asS'vadas'
p4817
(lp4818
I4
aF18.5
asS'food taste'
p4819
(lp4820
I1
aF4.5
asS'walk'
p4821
(lp4822
I1
aF3.5
asS'hygiene'
p4823
(lp4824
I1
aF5.0
asS'texture'
p4825
(lp4826
I1
aF5.0
asS'seatingfood'
p4827
(lp4828
I1
aF4.5
asS'idli vada'
p4829
(lp4830
I1
aF5.0
asS'quality'
p4831
(lp4832
I3
aF14.0
asS'gandhi bazaar'
p4833
(lp4834
I1
aF3.5
asS'size'
p4835
(lp4836
I1
aF4.5
asS'standing'
p4837
(lp4838
I1
aF4.5
asS'watering'
p4839
(lp4840
I1
aF3.5
asS'visit'
p4841
(lp4842
I2
aF8.5
asS'priority'
p4843
(lp4844
I1
aF5.0
asS'bengaluru'
p4845
(lp4846
I1
aF5.0
asS'name board'
p4847
(lp4848
I1
aF4.5
asS'here.ambiance'
p4849
(lp4850
I1
aF4.5
asS'board'
p4851
(lp4852
I1
aF4.5
asS'life'
p4853
(lp4854
I1
aF3.5
asS'spicy'
p4855
(lp4856
I1
aF4.5
asS'place ppl'
p4857
(lp4858
I1
aF4.5
asS'spicy coriander chutney'
p4859
(lp4860
I1
aF5.0
asS'taco bell'
p4861
(lp4862
I1
aF3.5
asS'regard'
p4863
(lp4864
I1
aF4.5
asS'vermicelli'
p4865
(lp4866
I1
aF4.0
asS'jayanagar.be'
p4867
(lp4868
I1
aF4.5
asS'foodfood'
p4869
(lp4870
I1
aF5.0
asS'fonts \xf0\x9f\x98\x8d'
p4871
(lp4872
I1
aF4.5
asS'part'
p4873
(lp4874
I1
aF3.5
asS'day.keep'
p4875
(lp4876
I1
aF4.5
asS'prices'
p4877
(lp4878
I2
aF9.5
asS'basavanagudi'
p4879
(lp4880
I1
aF4.5
asS'town'
p4881
(lp4882
I2
aF9.0
asS'it.the kesaribath'
p4883
(lp4884
I1
aF4.0
asS'breakfast outlet'
p4885
(lp4886
I1
aF4.5
asS'value'
p4887
(lp4888
I1
aF4.5
asS'foodies'
p4889
(lp4890
I1
aF5.0
asS'vada nothing'
p4891
(lp4892
I1
aF5.0
asS'making'
p4893
(lp4894
I1
aF5.0
asS'feeling'
p4895
(lp4896
I1
aF3.5
asS'compromise'
p4897
(lp4898
I1
aF4.5
asS'idli'
p4899
(lp4900
I6
aF27.0
asS'history'
p4901
(lp4902
I1
aF5.0
asS'mouth..crispy'
p4903
(lp4904
I1
aF4.5
asS'worthwhile'
p4905
(lp4906
I1
aF4.5
asS'sambar'
p4907
(lp4908
I2
aF9.5
asS'classic'
p4909
(lp4910
I1
aF4.5
asS'taste'
p4911
(lp4912
I3
aF12.5
asS'minutes'
p4913
(lp4914
I1
aF5.0
asS'ages'
p4915
(lp4916
I1
aF5.0
asS'customers'
p4917
(lp4918
I2
aF9.0
asS'heard'
p4919
(lp4920
I1
aF4.5
asS'brahmins'
p4921
(lp4922
I2
aF9.5
asS'something'
p4923
(lp4924
I1
aF4.0
asS'breakfast'
p4925
(lp4926
I2
aF9.5
asS'cafe'
p4927
(lp4928
I2
aF9.0
asS'filter coffee'
p4929
(lp4930
I3
aF12.5
asS'dishes'
p4931
(lp4932
I1
aF5.0
asS'locality'
p4933
(lp4934
I1
aF3.5
asS'kesari bath'
p4935
(lp4936
I1
aF4.0
asS'epic idli vada'
p4937
(lp4938
I1
aF4.5
asS'doors'
p4939
(lp4940
I1
aF5.0
asS'plates'
p4941
(lp4942
I1
aF3.5
asS'well..after'
p4943
(lp4944
I1
aF5.0
asS'khara bath'
p4945
(lp4946
I1
aF5.0
asS'price'
p4947
(lp4948
I1
aF4.5
asS'outlets'
p4949
(lp4950
I1
aF4.5
asS'cheers'
p4951
(lp4952
I3
aF15.0
asS'khaara bath..awesome coffee..it'
p4953
(lp4954
I1
aF4.5
asS'quality food'
p4955
(lp4956
I1
aF5.0
asS'kesaribath'
p4957
(lp4958
I1
aF4.0
asS'nothing'
p4959
(lp4960
I1
aF5.0
asS'morning breakfast'
p4961
(lp4962
I1
aF5.0
asS'butter'
p4963
(lp4964
I1
aF5.0
asS'fills'
p4965
(lp4966
I1
aF4.5
asS'hiccup'
p4967
(lp4968
I1
aF5.0
asS'hotels'
p4969
(lp4970
I1
aF5.0
asS'time'
p4971
(lp4972
I4
aF18.0
asS'blend'
p4973
(lp4974
I1
aF4.5
assS'51065'
p4975
(dp4976
S'food toh wah'
p4977
(lp4978
I1
aF4.5
asS'dosa lover'
p4979
(lp4980
I1
aF4.5
asS'time i'
p4981
(lp4982
I1
aF4.0
asS'basavanagudi'
p4983
(lp4984
I1
aF4.0
asS'melts'
p4985
(lp4986
I1
aF4.0
asS'masala dosas'
p4987
(lp4988
I1
aF4.0
asS'sagu masala dosa'
p4989
(lp4990
I1
aF4.5
asS'dosa'
p4991
(lp4992
I4
aF15.0
asS'dose'
p4993
(lp4994
I1
aF4.5
asS'course'
p4995
(lp4996
I1
aF4.5
asS'talky'
p4997
(lp4998
I1
aF4.5
asS'idlies'
p4999
(lp5000
I1
aF5.0
asS'thanks'
p5001
(lp5002
I1
aF4.5
asS'vidyarthi bhavan'
p5003
(lp5004
I3
aF11.5
asS'seats'
p5005
(lp5006
I3
aF11.5
asS'existence'
p5007
(lp5008
I2
aF7.0
asS'flavor'
p5009
(lp5010
I1
aF4.5
asS'sagu'
p5011
(lp5012
I3
aF11.5
asS'line'
p5013
(lp5014
I1
aF4.5
asS'perfect'
p5015
(lp5016
I2
aF8.5
asS'towards avalabetta'
p5017
(lp5018
I1
aF4.0
asS'yummy'
p5019
(lp5020
I1
aF3.0
asS'menu'
p5021
(lp5022
I2
aF8.5
asS'weekends'
p5023
(lp5024
I1
aF4.0
asS'avalabetta journey'
p5025
(lp5026
I1
aF4.0
asS'nostalgia'
p5027
(lp5028
I1
aF4.5
asS'potato masala'
p5029
(lp5030
I1
aF4.0
asS'parents'
p5031
(lp5032
I2
aF7.0
asS'ghee'
p5033
(lp5034
I2
aF6.5
asS'founders'
p5035
(lp5036
I1
aF4.5
asS'rice'
p5037
(lp5038
I2
aF7.0
asS'worth'
p5039
(lp5040
I4
aF16.0
asS'lungis'
p5041
(lp5042
I1
aF3.5
asS'rajya otsava'
p5043
(lp5044
I1
aF4.5
asS'dosey.the'
p5045
(lp5046
I2
aF8.0
asS'coffee.everything'
p5047
(lp5048
I1
aF3.5
asS'food'
p5049
(lp5050
I4
aF16.5
asS'couple'
p5051
(lp5052
I1
aF5.0
asS'coconut chutney'
p5053
(lp5054
I1
aF4.5
asS'kind'
p5055
(lp5056
I2
aF8.5
asS'mention'
p5057
(lp5058
I2
aF8.0
asS'batter'
p5059
(lp5060
I1
aF4.0
asS'plates'
p5061
(lp5062
I1
aF3.5
asS'inception'
p5063
(lp5064
I2
aF7.0
asS'world'
p5065
(lp5066
I2
aF8.5
asS'years'
p5067
(lp5068
I3
aF12.0
asS'chutney'
p5069
(lp5070
I7
aF29.0
asS'idli vada sambar nice'
p5071
(lp5072
I1
aF3.0
asS'kesari bath'
p5073
(lp5074
I3
aF12.0
asS'benne dosa'
p5075
(lp5076
I1
aF4.0
asS'crisp'
p5077
(lp5078
I3
aF12.0
asS'name'
p5079
(lp5080
I2
aF8.0
asS'stranger'
p5081
(lp5082
I2
aF7.0
asS'idliwada'
p5083
(lp5084
I1
aF4.0
asS'time visit'
p5085
(lp5086
I1
aF3.0
asS'occasions'
p5087
(lp5088
I1
aF4.5
asS'queues'
p5089
(lp5090
I1
aF4.0
asS'lala'
p5091
(lp5092
I1
aF4.0
asS'bangalorean'
p5093
(lp5094
I1
aF3.5
asS'morning'
p5095
(lp5096
I2
aF7.5
asS'stuff'
p5097
(lp5098
I1
aF3.0
asS'benne dosas'
p5099
(lp5100
I1
aF4.0
asS'surprise i'
p5101
(lp5102
I1
aF4.0
asS'room etc'
p5103
(lp5104
I1
aF3.0
asS'side'
p5105
(lp5106
I1
aF3.0
asS'insane'
p5107
(lp5108
I1
aF4.5
asS'bengaluruthis morning'
p5109
(lp5110
I1
aF4.0
asS'bright'
p5111
(lp5112
I2
aF8.5
asS'people'
p5113
(lp5114
I6
aF22.0
asS'potato masala inside'
p5115
(lp5116
I2
aF8.5
asS'rava vada aint'
p5117
(lp5118
I1
aF4.5
asS'seat'
p5119
(lp5120
I1
aF4.5
asS'radius'
p5121
(lp5122
I1
aF3.5
asS'brahmincafe'
p5123
(lp5124
I1
aF4.0
asS'thing i'
p5125
(lp5126
I1
aF5.0
asS'ourselves'
p5127
(lp5128
I2
aF7.0
asS'living'
p5129
(lp5130
I1
aF3.5
asS'vada'
p5131
(lp5132
I3
aF11.5
asS'rava vada'
p5133
(lp5134
I2
aF8.0
asS'dosa joint'
p5135
(lp5136
I1
aF3.5
asS'vintageplace'
p5137
(lp5138
I1
aF4.0
asS'everything'
p5139
(lp5140
I2
aF7.0
asS'finger'
p5141
(lp5142
I1
aF3.0
asS'darshinis provide'
p5143
(lp5144
I1
aF5.0
asS'achievements'
p5145
(lp5146
I2
aF7.0
asS'terms'
p5147
(lp5148
I2
aF7.0
asS'dosa i'
p5149
(lp5150
I1
aF4.5
asS'bangaloreans'
p5151
(lp5152
I1
aF4.5
asS'city.this place'
p5153
(lp5154
I2
aF7.0
asS'hours'
p5155
(lp5156
I2
aF8.5
asS'times.ambiance'
p5157
(lp5158
I1
aF4.5
asS'puritan beliefs'
p5159
(lp5160
I1
aF4.5
asS'food space'
p5161
(lp5162
I1
aF4.5
asS'bangalore'
p5163
(lp5164
I4
aF16.0
asS'hand'
p5165
(lp5166
I1
aF3.5
asS'wait'
p5167
(lp5168
I2
aF7.5
asS'service'
p5169
(lp5170
I1
aF4.5
asS'restaurant'
p5171
(lp5172
I1
aF3.0
asS'walky'
p5173
(lp5174
I1
aF3.5
asS'bangalore place'
p5175
(lp5176
I1
aF3.5
asS'experience'
p5177
(lp5178
I2
aF9.0
asS'times'
p5179
(lp5180
I2
aF9.5
asS'thing'
p5181
(lp5182
I2
aF8.5
asS'place'
p5183
(lp5184
I13
aF52.0
asS'mouth'
p5185
(lp5186
I1
aF4.0
asS'changes'
p5187
(lp5188
I2
aF7.0
asS'coffee didnt'
p5189
(lp5190
I1
aF3.5
asS'dosa ..crispy'
p5191
(lp5192
I1
aF3.5
asS'family'
p5193
(lp5194
I2
aF7.0
asS'diwali breakfast'
p5195
(lp5196
I1
aF3.5
asS'feel'
p5197
(lp5198
I4
aF14.5
asS'number'
p5199
(lp5200
I1
aF4.5
asS'bath'
p5201
(lp5202
I4
aF15.5
asS'table'
p5203
(lp5204
I7
aF26.5
asS'thick'
p5205
(lp5206
I1
aF3.5
asS'quality'
p5207
(lp5208
I1
aF4.0
asS'hotels'
p5209
(lp5210
I1
aF3.5
asS'city'
p5211
(lp5212
I1
aF3.5
asS'management'
p5213
(lp5214
I2
aF8.5
asS'i.e.'
p5215
(lp5216
I2
aF7.0
asS'billing'
p5217
(lp5218
I1
aF4.5
asS'system'
p5219
(lp5220
I1
aF4.5
asS'mark'
p5221
(lp5222
I1
aF5.0
asS'bazar'
p5223
(lp5224
I1
aF4.5
asS'waiting period'
p5225
(lp5226
I1
aF4.5
asS'today'
p5227
(lp5228
I1
aF4.0
asS'building'
p5229
(lp5230
I1
aF3.0
asS'life'
p5231
(lp5232
I1
aF4.5
asS'gandhibazar'
p5233
(lp5234
I1
aF4.5
asS'upma'
p5235
(lp5236
I1
aF4.5
asS'dosa idli wada'
p5237
(lp5238
I1
aF4.0
asS'spicy side'
p5239
(lp5240
I1
aF4.5
asS'charming'
p5241
(lp5242
I1
aF4.0
asS'ambience'
p5243
(lp5244
I2
aF7.5
asS'masala dosa'
p5245
(lp5246
I9
aF36.5
asS'sagu dosey'
p5247
(lp5248
I2
aF8.0
asS'masala dose'
p5249
(lp5250
I2
aF9.0
asS'puja/'
p5251
(lp5252
I1
aF4.5
asS'khara baath'
p5253
(lp5254
I1
aF4.0
asS'talkies'
p5255
(lp5256
I1
aF3.0
asS'hour'
p5257
(lp5258
I2
aF8.5
asS'taste u'
p5259
(lp5260
I1
aF4.0
asS'default'
p5261
(lp5262
I1
aF3.5
asS'ragi'
p5263
(lp5264
I1
aF4.0
asS'value'
p5265
(lp5266
I2
aF7.0
asS'start @'
p5267
(lp5268
I1
aF4.0
asS'hour wait'
p5269
(lp5270
I1
aF3.5
asS'fruits'
p5271
(lp5272
I2
aF8.5
asS'feeling'
p5273
(lp5274
I2
aF8.5
asS'minutes'
p5275
(lp5276
I3
aF10.0
asS'wait staff'
p5277
(lp5278
I1
aF3.0
asS'heart'
p5279
(lp5280
I1
aF4.0
asS'money'
p5281
(lp5282
I1
aF4.5
asS'sambar'
p5283
(lp5284
I6
aF23.0
asS'plate'
p5285
(lp5286
I2
aF9.0
asS'taste'
p5287
(lp5288
I2
aF7.0
asS'share'
p5289
(lp5290
I3
aF11.5
asS'coffee'
p5291
(lp5292
I6
aF25.0
asS'something'
p5293
(lp5294
I1
aF3.5
asS'breakfast'
p5295
(lp5296
I6
aF22.5
asS'mins'
p5297
(lp5298
I1
aF4.5
asS'technology'
p5299
(lp5300
I1
aF3.5
asS'orders'
p5301
(lp5302
I1
aF3.5
asS'palce'
p5303
(lp5304
I1
aF4.0
asS'dinusfoodexperience'
p5305
(lp5306
I1
aF4.0
asS'dosas'
p5307
(lp5308
I6
aF23.0
asS'vibe'
p5309
(lp5310
I2
aF8.5
asS'dosey'
p5311
(lp5312
I1
aF3.5
asS'till'
p5313
(lp5314
I1
aF4.0
asS'servers'
p5315
(lp5316
I1
aF4.5
asS'party'
p5317
(lp5318
I1
aF3.0
asS'veg food'
p5319
(lp5320
I1
aF4.5
asS'fine saturday morning'
p5321
(lp5322
I1
aF3.5
asS'mouth watering'
p5323
(lp5324
I1
aF4.5
asS'finish'
p5325
(lp5326
I1
aF4.0
asS'mouths'
p5327
(lp5328
I2
aF8.0
asS'opposite'
p5329
(lp5330
I1
aF4.0
asS'eater'
p5331
(lp5332
I1
aF4.5
asS'adigas dosa'
p5333
(lp5334
I1
aF3.0
asS'charm.we'
p5335
(lp5336
I2
aF7.0
asS'cheers'
p5337
(lp5338
I1
aF4.5
asS'town'
p5339
(lp5340
I1
aF4.5
asS'moment'
p5341
(lp5342
I1
aF4.5
asS'filter coffee'
p5343
(lp5344
I2
aF8.5
asS'charm'
p5345
(lp5346
I1
aF3.0
asS'foodjoints'
p5347
(lp5348
I1
aF4.0
asS'strength'
p5349
(lp5350
I1
aF4.5
asS'aalo mix'
p5351
(lp5352
I1
aF4.5
asS'weekend'
p5353
(lp5354
I1
aF4.0
asS'butter'
p5355
(lp5356
I1
aF4.5
asS'b gudi'
p5357
(lp5358
I1
aF3.0
asS'histroy'
p5359
(lp5360
I1
aF4.0
asS'whole'
p5361
(lp5362
I1
aF4.5
asS'colour'
p5363
(lp5364
I2
aF8.5
asS'youre'
p5365
(lp5366
I1
aF3.5
asS'food standards'
p5367
(lp5368
I1
aF5.0
asS'anytime'
p5369
(lp5370
I1
aF4.5
asS'fruit market around.they'
p5371
(lp5372
I1
aF4.5
asS'sambhar'
p5373
(lp5374
I1
aF5.0
asS'glutton'
p5375
(lp5376
I1
aF4.0
asS'time'
p5377
(lp5378
I4
aF15.5
asS'visit place'
p5379
(lp5380
I1
aF4.0
asS'40mins'
p5381
(lp5382
I1
aF3.5
assS'57141'
p5383
(dp5384
S'rating'
p5385
(lp5386
I1
aF4.5
asS'feedback'
p5387
(lp5388
I1
aF3.0
asS'cheese'
p5389
(lp5390
I1
aF1.0
asS'money'
p5391
(lp5392
I1
aF2.0
asS'kheer'
p5393
(lp5394
I1
aF4.0
asS'meal'
p5395
(lp5396
I1
aF4.5
asS'aloo paratha'
p5397
(lp5398
I2
aF7.0
asS'matka'
p5399
(lp5400
I1
aF2.0
asS'malai kofta'
p5401
(lp5402
I2
aF7.0
asS'gobi parantha'
p5403
(lp5404
I1
aF4.5
asS'facts'
p5405
(lp5406
I2
aF8.0
asS'lassi'
p5407
(lp5408
I8
aF30.0
asS'flavor'
p5409
(lp5410
I3
aF12.0
asS'arrangement'
p5411
(lp5412
I2
aF8.0
asS'issues'
p5413
(lp5414
I1
aF3.5
asS'staff'
p5415
(lp5416
I3
aF8.0
asS'raves'
p5417
(lp5418
I2
aF8.0
asS'fruit cream'
p5419
(lp5420
I2
aF6.5
asS'menu'
p5421
(lp5422
I1
aF4.5
asS'rotis'
p5423
(lp5424
I1
aF3.5
asS'desi veg punjabi food'
p5425
(lp5426
I1
aF4.0
asS'pakodas..mutter paratha'
p5427
(lp5428
I1
aF2.0
asS'khasta'
p5429
(lp5430
I1
aF1.0
asS'improvement'
p5431
(lp5432
I1
aF3.0
asS'starters'
p5433
(lp5434
I1
aF5.0
asS'simple'
p5435
(lp5436
I2
aF8.0
asS'chillies'
p5437
(lp5438
I2
aF7.0
asS'cashews'
p5439
(lp5440
I1
aF4.5
asS'butter.i'
p5441
(lp5442
I1
aF4.5
asS'ghee'
p5443
(lp5444
I1
aF3.0
asS'ambience'
p5445
(lp5446
I6
aF22.5
asS'rice'
p5447
(lp5448
I1
aF4.5
asS'hope'
p5449
(lp5450
I1
aF3.0
asS'plate'
p5451
(lp5452
I1
aF4.5
asS'pyaaza'
p5453
(lp5454
I1
aF3.5
asS'rescue'
p5455
(lp5456
I1
aF4.5
asS'touch'
p5457
(lp5458
I3
aF11.5
asS'paneer lababdar'
p5459
(lp5460
I1
aF2.0
asS'food'
p5461
(lp5462
I19
aF69.0
asS'disappointed.ambiance'
p5463
(lp5464
I1
aF1.0
asS'background'
p5465
(lp5466
I1
aF4.5
asS'rush'
p5467
(lp5468
I1
aF3.0
asS'pocket'
p5469
(lp5470
I1
aF4.0
asS'walls'
p5471
(lp5472
I2
aF8.0
asS'outlet'
p5473
(lp5474
I1
aF5.0
asS'listening'
p5475
(lp5476
I1
aF4.5
asS'half'
p5477
(lp5478
I1
aF3.0
asS'world'
p5479
(lp5480
I1
aF4.0
asS'difference'
p5481
(lp5482
I2
aF8.0
asS'chutney'
p5483
(lp5484
I1
aF4.0
asS'gobhi'
p5485
(lp5486
I1
aF1.0
asS'portion'
p5487
(lp5488
I2
aF7.0
asS'rajma'
p5489
(lp5490
I2
aF7.0
asS'kadhai paneer'
p5491
(lp5492
I1
aF3.5
asS'approach'
p5493
(lp5494
I1
aF4.0
asS'signal'
p5495
(lp5496
I2
aF8.0
asS'oaneer pulav'
p5497
(lp5498
I1
aF2.0
asS'licking'
p5499
(lp5500
I2
aF7.0
asS'way south'
p5501
(lp5502
I1
aF2.0
asS'weekends'
p5503
(lp5504
I2
aF7.0
asS'filling'
p5505
(lp5506
I1
aF4.0
asS'pakoda'
p5507
(lp5508
I1
aF4.5
asS'shitty food'
p5509
(lp5510
I1
aF4.5
asS'foods'
p5511
(lp5512
I1
aF4.0
asS'hype'
p5513
(lp5514
I2
aF8.0
asS'side'
p5515
(lp5516
I1
aF4.0
asS'chilli powder'
p5517
(lp5518
I2
aF7.0
asS'punjabi restaurant'
p5519
(lp5520
I2
aF8.5
asS'seating'
p5521
(lp5522
I2
aF5.5
asS'right'
p5523
(lp5524
I1
aF4.0
asS'crowd'
p5525
(lp5526
I2
aF8.5
asS'burst'
p5527
(lp5528
I1
aF1.0
asS'parantha'
p5529
(lp5530
I3
aF9.5
asS'seat'
p5531
(lp5532
I1
aF3.0
asS'dish'
p5533
(lp5534
I4
aF13.5
asS'flavours'
p5535
(lp5536
I1
aF3.0
asS'punjabi cuisine'
p5537
(lp5538
I3
aF12.5
asS'pricing'
p5539
(lp5540
I1
aF3.5
asS'parking'
p5541
(lp5542
I4
aF16.0
asS'kapoors'
p5543
(lp5544
I2
aF8.0
asS'rocks'
p5545
(lp5546
I2
aF7.0
asS'chair'
p5547
(lp5548
I2
aF8.0
asS'dhabas'
p5549
(lp5550
I2
aF8.0
asS'place stinks'
p5551
(lp5552
I1
aF4.0
asS'lovers'
p5553
(lp5554
I1
aF4.0
asS'pataka balls'
p5555
(lp5556
I1
aF5.0
asS'visiting'
p5557
(lp5558
I1
aF2.0
asS'lots'
p5559
(lp5560
I2
aF7.5
asS'paneer pakora'
p5561
(lp5562
I1
aF4.0
asS'superb'
p5563
(lp5564
I1
aF3.0
asS'city limits'
p5565
(lp5566
I2
aF8.0
asS'paranthas'
p5567
(lp5568
I1
aF3.0
asS'music system'
p5569
(lp5570
I1
aF4.0
asS'portions'
p5571
(lp5572
I2
aF7.0
asS'punjabi guy'
p5573
(lp5574
I1
aF4.0
asS'pakoda balls'
p5575
(lp5576
I2
aF7.0
asS'thali'
p5577
(lp5578
I2
aF7.0
asS'bangalore.we'
p5579
(lp5580
I1
aF4.5
asS'infrastructure'
p5581
(lp5582
I1
aF5.0
asS'burps'
p5583
(lp5584
I1
aF4.0
asS'lassi..'
p5585
(lp5586
I1
aF3.5
asS'puris'
p5587
(lp5588
I1
aF4.0
asS'garage kind'
p5589
(lp5590
I2
aF8.0
asS'style'
p5591
(lp5592
I4
aF12.5
asS'culture phrases'
p5593
(lp5594
I2
aF8.0
asS'reason'
p5595
(lp5596
I1
aF4.5
asS'lassi rocks'
p5597
(lp5598
I1
aF4.5
asS'fulkas'
p5599
(lp5600
I2
aF7.0
asS'chole'
p5601
(lp5602
I2
aF6.0
asS'punjabi place'
p5603
(lp5604
I2
aF8.0
asS'bangalore'
p5605
(lp5606
I3
aF11.0
asS'kitchen'
p5607
(lp5608
I2
aF8.0
asS'alloo jeera'
p5609
(lp5610
I1
aF4.0
asS'fruit lassi'
p5611
(lp5612
I3
aF12.0
asS'punjabi dudes'
p5613
(lp5614
I1
aF4.0
asS'singh siddhu'
p5615
(lp5616
I1
aF4.0
asS'aloo'
p5617
(lp5618
I1
aF4.5
asS'experience'
p5619
(lp5620
I1
aF2.0
asS'punjabi food'
p5621
(lp5622
I3
aF10.5
asS'butter paneer masala'
p5623
(lp5624
I1
aF4.0
asS'thing'
p5625
(lp5626
I2
aF8.0
asS'range'
p5627
(lp5628
I1
aF4.0
asS'place'
p5629
(lp5630
I15
aF56.5
asS'disappointment'
p5631
(lp5632
I1
aF4.5
asS'flavour'
p5633
(lp5634
I1
aF2.0
asS'spices'
p5635
(lp5636
I1
aF3.0
asS'papad'
p5637
(lp5638
I2
aF7.0
asS'road'
p5639
(lp5640
I2
aF8.0
asS'dhaba kinda taste'
p5641
(lp5642
I2
aF8.0
asS'love'
p5643
(lp5644
I1
aF1.0
asS'place.lets'
p5645
(lp5646
I2
aF8.0
asS'feel'
p5647
(lp5648
I1
aF2.0
asS'masalas'
p5649
(lp5650
I1
aF4.0
asS'food taste'
p5651
(lp5652
I1
aF3.0
asS'burst parathas'
p5653
(lp5654
I1
aF4.0
asS'masala soda'
p5655
(lp5656
I1
aF4.5
asS'nothing'
p5657
(lp5658
I1
aF5.0
asS'food quality'
p5659
(lp5660
I2
aF9.0
asS'gravies'
p5661
(lp5662
I2
aF8.0
asS'place doesnt'
p5663
(lp5664
I2
aF8.0
asS'owner'
p5665
(lp5666
I2
aF7.0
asS'dollop'
p5667
(lp5668
I1
aF3.0
asS'home delivery paneer'
p5669
(lp5670
I1
aF4.5
asS'size'
p5671
(lp5672
I2
aF7.0
asS'pudina khasta paratha'
p5673
(lp5674
I2
aF7.0
asS'service'
p5675
(lp5676
I4
aF14.0
asS'area'
p5677
(lp5678
I3
aF12.5
asS'jeera rice'
p5679
(lp5680
I1
aF4.5
asS'parsthas'
p5681
(lp5682
I1
aF4.5
asS'indians'
p5683
(lp5684
I1
aF4.0
asS'visit'
p5685
(lp5686
I1
aF4.0
asS'system'
p5687
(lp5688
I1
aF3.5
asS'curries'
p5689
(lp5690
I2
aF8.0
asS'desert'
p5691
(lp5692
I2
aF6.5
asS'butter masala'
p5693
(lp5694
I1
aF4.5
asS'buttermilk'
p5695
(lp5696
I1
aF4.0
asS'resturent'
p5697
(lp5698
I1
aF3.0
asS'place thrice'
p5699
(lp5700
I1
aF1.0
asS'diwali day'
p5701
(lp5702
I1
aF3.0
asS'kulhad'
p5703
(lp5704
I1
aF4.0
asS'matra'
p5705
(lp5706
I1
aF4.5
asS'punjabi pop songs'
p5707
(lp5708
I1
aF4.5
asS'menu card'
p5709
(lp5710
I1
aF4.0
asS'entrance'
p5711
(lp5712
I1
aF2.0
asS'north'
p5713
(lp5714
I1
aF4.0
asS'option'
p5715
(lp5716
I1
aF4.5
asS'fan punjabi food'
p5717
(lp5718
I1
aF4.0
asS'caf\xc3\xa9'
p5719
(lp5720
I2
aF8.0
asS'punjabi taste'
p5721
(lp5722
I1
aF1.0
asS'combo'
p5723
(lp5724
I1
aF4.5
asS'cashier'
p5725
(lp5726
I1
aF3.5
asS'paneer'
p5727
(lp5728
I8
aF28.0
asS'stuffed parathas'
p5729
(lp5730
I1
aF4.5
asS'phone'
p5731
(lp5732
I1
aF4.0
asS'dudes'
p5733
(lp5734
I1
aF4.0
asS'part'
p5735
(lp5736
I3
aF10.5
asS'punjabi i'
p5737
(lp5738
I2
aF8.0
asS'masala'
p5739
(lp5740
I3
aF11.5
asS'prices'
p5741
(lp5742
I2
aF8.5
asS'brunch'
p5743
(lp5744
I1
aF4.0
asS'.kheer'
p5745
(lp5746
I1
aF1.0
asS'desi infrastructure'
p5747
(lp5748
I1
aF4.5
asS'starter'
p5749
(lp5750
I1
aF4.5
asS'case'
p5751
(lp5752
I1
aF3.5
asS'kind'
p5753
(lp5754
I1
aF3.0
asS'wise'
p5755
(lp5756
I2
aF8.0
asS'places'
p5757
(lp5758
I2
aF5.5
asS'style food'
p5759
(lp5760
I1
aF4.5
asS'bill'
p5761
(lp5762
I1
aF3.5
asS'fries'
p5763
(lp5764
I2
aF7.0
asS'curd'
p5765
(lp5766
I1
aF4.5
asS'value'
p5767
(lp5768
I1
aF2.0
asS'waiters'
p5769
(lp5770
I1
aF3.5
asS'zomato'
p5771
(lp5772
I2
aF8.0
asS'items'
p5773
(lp5774
I1
aF4.5
asS'situation'
p5775
(lp5776
I1
aF4.0
asS'didnt'
p5777
(lp5778
I1
aF4.5
asS'falvors'
p5779
(lp5780
I2
aF7.0
asS'flavoursome'
p5781
(lp5782
I1
aF4.5
asS'punjabi restaurants'
p5783
(lp5784
I1
aF4.5
asS'masala papad'
p5785
(lp5786
I2
aF7.0
asS'taste'
p5787
(lp5788
I3
aF8.0
asS'chass'
p5789
(lp5790
I1
aF3.0
asS'punjabi parantha'
p5791
(lp5792
I1
aF3.0
asS'combo meal'
p5793
(lp5794
I1
aF4.5
asS'dearth'
p5795
(lp5796
I1
aF4.5
asS'weekend crowd'
p5797
(lp5798
I1
aF4.5
asS'tastes'
p5799
(lp5800
I1
aF3.5
asS'tasty'
p5801
(lp5802
I1
aF4.5
asS'something'
p5803
(lp5804
I1
aF4.5
asS'want'
p5805
(lp5806
I1
aF3.0
asS'sense'
p5807
(lp5808
I1
aF4.0
asS'breakfast'
p5809
(lp5810
I2
aF8.5
asS'chana dal'
p5811
(lp5812
I1
aF3.5
asS'paratha'
p5813
(lp5814
I2
aF7.0
asS'mushroom masala'
p5815
(lp5816
I1
aF4.5
asS'kudi'
p5817
(lp5818
I1
aF4.0
asS'bhatura'
p5819
(lp5820
I1
aF4.0
asS'cafe'
p5821
(lp5822
I1
aF4.5
asS'dishes'
p5823
(lp5824
I1
aF4.5
asS'deserves'
p5825
(lp5826
I1
aF4.5
asS'lot spicy'
p5827
(lp5828
I2
aF8.0
asS'shahi tukda'
p5829
(lp5830
I1
aF2.0
asS'.the owner'
p5831
(lp5832
I1
aF4.0
asS'plaxe'
p5833
(lp5834
I1
aF4.0
asS'dal makhani'
p5835
(lp5836
I1
aF4.0
asS'punjabis\xe2\x80\x99'
p5837
(lp5838
I2
aF8.0
asS'masala chaas'
p5839
(lp5840
I1
aF3.0
asS'punjabi daler'
p5841
(lp5842
I1
aF4.5
asS'restaurant'
p5843
(lp5844
I1
aF4.0
asS'watery'
p5845
(lp5846
I2
aF8.5
asS'gravy'
p5847
(lp5848
I1
aF4.0
asS'kesar'
p5849
(lp5850
I2
aF3.0
asS'eater'
p5851
(lp5852
I1
aF3.5
asS'dhaba'
p5853
(lp5854
I6
aF20.0
asS'place pleasant'
p5855
(lp5856
I1
aF2.0
asS'roads'
p5857
(lp5858
I2
aF8.0
asS'khasta parantha'
p5859
(lp5860
I1
aF4.5
asS'vegans'
p5861
(lp5862
I2
aF7.0
asS'pure punjabi food'
p5863
(lp5864
I1
aF4.0
asS'friends'
p5865
(lp5866
I1
aF3.0
asS'mishti dahi'
p5867
(lp5868
I1
aF2.0
asS'types'
p5869
(lp5870
I2
aF7.5
asS'butter'
p5871
(lp5872
I4
aF15.0
asS'lane'
p5873
(lp5874
I2
aF8.0
asS'driving'
p5875
(lp5876
I2
aF8.0
asS'gobi parata'
p5877
(lp5878
I1
aF4.5
asS'light'
p5879
(lp5880
I1
aF4.0
asS'parathas'
p5881
(lp5882
I4
aF15.5
asS'whitefield'
p5883
(lp5884
I1
aF3.0
asS'onion paratha'
p5885
(lp5886
I2
aF7.0
asS'alloo parantha'
p5887
(lp5888
I1
aF4.0
asS'kulcha'
p5889
(lp5890
I1
aF4.5
asS'influx'
p5891
(lp5892
I1
aF4.0
asS'clean'
p5893
(lp5894
I1
aF4.0
asS'time'
p5895
(lp5896
I6
aF20.5
asS'repeat order'
p5897
(lp5898
I1
aF4.5
asS'order'
p5899
(lp5900
I1
aF3.0
asS'songs'
p5901
(lp5902
I2
aF8.5
assS'52228'
p5903
(dp5904
S'selection'
p5905
(lp5906
I1
aF5.0
asS'leg delicacy'
p5907
(lp5908
I1
aF5.0
asS'dance'
p5909
(lp5910
I1
aF4.0
asS'money'
p5911
(lp5912
I1
aF4.0
asS'paneer.next'
p5913
(lp5914
I2
aF9.0
asS'years'
p5915
(lp5916
I3
aF14.0
asS'course'
p5917
(lp5918
I5
aF22.5
asS'singapore.since'
p5919
(lp5920
I2
aF10.0
asS'dish'
p5921
(lp5922
I3
aF14.0
asS'capsicums'
p5923
(lp5924
I2
aF9.0
asS'choubey'
p5925
(lp5926
I2
aF10.0
asS'staff'
p5927
(lp5928
I3
aF12.0
asS'perfect'
p5929
(lp5930
I1
aF5.0
asS'punjabi khanna fit'
p5931
(lp5932
I1
aF4.0
asS'menu'
p5933
(lp5934
I3
aF13.0
asS'punjab'
p5935
(lp5936
I1
aF3.0
asS'state'
p5937
(lp5938
I1
aF3.0
asS'texture'
p5939
(lp5940
I1
aF5.0
asS'it\xe2\x80\x99s'
p5941
(lp5942
I1
aF4.0
asS'starters'
p5943
(lp5944
I4
aF16.5
asS'rawalpindi'
p5945
(lp5946
I1
aF3.0
asS'amritsar'
p5947
(lp5948
I1
aF3.0
asS'area i'
p5949
(lp5950
I2
aF6.5
asS'garnish.we couldnt'
p5951
(lp5952
I1
aF5.0
asS'ambience'
p5953
(lp5954
I4
aF17.5
asS'ours'
p5955
(lp5956
I2
aF9.0
asS'worth'
p5957
(lp5958
I1
aF4.0
asS'waiters'
p5959
(lp5960
I1
aF4.0
asS'paneer tikka'
p5961
(lp5962
I2
aF9.0
asS'cottage cheese'
p5963
(lp5964
I2
aF10.0
asS'mango pulp'
p5965
(lp5966
I2
aF9.0
asS'delhi'
p5967
(lp5968
I2
aF10.0
asS'evening'
p5969
(lp5970
I1
aF5.0
asS'degustation menu'
p5971
(lp5972
I1
aF4.0
asS'ample'
p5973
(lp5974
I2
aF9.0
asS'food'
p5975
(lp5976
I8
aF34.0
asS'kababs'
p5977
(lp5978
I1
aF4.5
asS'ginger juliennes'
p5979
(lp5980
I2
aF9.0
asS'falooda'
p5981
(lp5982
I1
aF5.0
asS'nation'
p5983
(lp5984
I1
aF4.0
asS'lunch'
p5985
(lp5986
I1
aF5.0
asS'specialty restaurant'
p5987
(lp5988
I2
aF10.0
asS'inception'
p5989
(lp5990
I2
aF10.0
asS'bank'
p5991
(lp5992
I2
aF6.5
asS'coriander'
p5993
(lp5994
I1
aF5.0
asS'patialashahi kadai paneer'
p5995
(lp5996
I2
aF9.0
asS'tawa veg'
p5997
(lp5998
I1
aF4.0
asS'courses'
p5999
(lp6000
I1
aF4.0
asS'gulab jamun post'
p6001
(lp6002
I1
aF4.5
asS'dining destination'
p6003
(lp6004
I1
aF3.0
asS'chutney foam'
p6005
(lp6006
I1
aF5.0
asS'jewellery'
p6007
(lp6008
I2
aF6.5
asS'naan'
p6009
(lp6010
I1
aF4.0
asS'shikanjvi'
p6011
(lp6012
I2
aF9.0
asS'kulfi'
p6013
(lp6014
I1
aF5.0
asS'almonds'
p6015
(lp6016
I1
aF5.0
asS'specialities'
p6017
(lp6018
I1
aF3.0
asS'world gourmet summit'
p6019
(lp6020
I2
aF10.0
asS'< span > < /span >'
p6021
(lp6022
I1
aF4.0
asS'drinks'
p6023
(lp6024
I2
aF9.0
asS'flavors.raan \xe2\x80\x93'
p6025
(lp6026
I1
aF5.0
asS'review'
p6027
(lp6028
I2
aF10.0
asS'anniversary'
p6029
(lp6030
I1
aF4.0
asS'everything'
p6031
(lp6032
I1
aF3.5
asS'food pricing'
p6033
(lp6034
I1
aF5.0
asS'version'
p6035
(lp6036
I1
aF4.0
asS'lahore'
p6037
(lp6038
I1
aF3.0
asS'bread basket'
p6039
(lp6040
I2
aF9.0
asS'tandoori chicken'
p6041
(lp6042
I1
aF4.0
asS'taste buds'
p6043
(lp6044
I1
aF3.0
asS'nature'
p6045
(lp6046
I1
aF4.0
asS'chefs'
p6047
(lp6048
I2
aF10.0
asS'team lunch today'
p6049
(lp6050
I2
aF9.0
asS'bangaloreans'
p6051
(lp6052
I1
aF4.0
asS'standard'
p6053
(lp6054
I2
aF6.5
asS'bangalore'
p6055
(lp6056
I3
aF14.5
asS'kings'
p6057
(lp6058
I1
aF4.0
asS'master chef classes'
p6059
(lp6060
I2
aF10.0
asS'place..'
p6061
(lp6062
I1
aF5.0
asS'comparison'
p6063
(lp6064
I1
aF5.0
asS'service'
p6065
(lp6066
I4
aF15.5
asS'restaurant'
p6067
(lp6068
I5
aF19.5
asS'items'
p6069
(lp6070
I1
aF3.5
asS'region'
p6071
(lp6072
I2
aF10.0
asS'chef choubey'
p6073
(lp6074
I2
aF10.0
asS'experience'
p6075
(lp6076
I2
aF10.0
asS'panna'
p6077
(lp6078
I2
aF9.0
asS'dinner'
p6079
(lp6080
I1
aF4.0
asS'kitchens'
p6081
(lp6082
I1
aF3.0
asS'place'
p6083
(lp6084
I9
aF40.5
asS'taste wise'
p6085
(lp6086
I1
aF4.0
asS'rum gulab jamuns.. i'
p6087
(lp6088
I1
aF4.5
asS'all.fire'
p6089
(lp6090
I2
aF10.0
asS'punjab grill signature series'
p6091
(lp6092
I1
aF4.0
asS'fans'
p6093
(lp6094
I1
aF4.0
asS'6.5/102.ambience'
p6095
(lp6096
I2
aF8.5
asS'aam panna'
p6097
(lp6098
I2
aF9.0
asS'rotis'
p6099
(lp6100
I1
aF4.0
asS'orange sriracha'
p6101
(lp6102
I2
aF10.0
asS'family'
p6103
(lp6104
I1
aF4.5
asS'heart'
p6105
(lp6106
I1
aF3.0
asS'palak paneer'
p6107
(lp6108
I1
aF4.0
asS'servers'
p6109
(lp6110
I1
aF5.0
asS'mushrooms'
p6111
(lp6112
I1
aF5.0
asS'table'
p6113
(lp6114
I3
aF13.5
asS'panna concentrate'
p6115
(lp6116
I2
aF9.0
asS'quality'
p6117
(lp6118
I2
aF9.0
asS'select'
p6119
(lp6120
I2
aF10.0
asS'flavors'
p6121
(lp6122
I1
aF5.0
asS'city'
p6123
(lp6124
I4
aF19.0
asS'district'
p6125
(lp6126
I1
aF3.0
asS'watering'
p6127
(lp6128
I1
aF4.5
asS'pan shot'
p6129
(lp6130
I1
aF4.0
asS'pure hedonistic'
p6131
(lp6132
I1
aF4.0
asS'tikka'
p6133
(lp6134
I2
aF8.0
asS'whooppeezz pizza'
p6135
(lp6136
I2
aF6.5
asS'fire'
p6137
(lp6138
I1
aF4.5
asS'quantities'
p6139
(lp6140
I1
aF4.0
asS'course degustation menu'
p6141
(lp6142
I3
aF14.0
asS'rawalpindi chana'
p6143
(lp6144
I2
aF9.0
asS'part'
p6145
(lp6146
I4
aF19.0
asS'kadai restaurant'
p6147
(lp6148
I2
aF6.5
asS'flavour'
p6149
(lp6150
I2
aF9.0
asS'koramangala'
p6151
(lp6152
I1
aF3.0
asS'setup'
p6153
(lp6154
I1
aF3.5
asS'8.5/10location'
p6155
(lp6156
I2
aF6.5
asS'tummy'
p6157
(lp6158
I1
aF4.0
asS'peshawar'
p6159
(lp6160
I1
aF3.0
asS'street'
p6161
(lp6162
I2
aF6.5
asS'marriage'
p6163
(lp6164
I1
aF5.0
asS'makhni'
p6165
(lp6166
I1
aF4.5
asS'punjabi'
p6167
(lp6168
I1
aF4.0
asS'colleague'
p6169
(lp6170
I2
aF9.0
asS'palate'
p6171
(lp6172
I1
aF5.0
asS'bangalore aims'
p6173
(lp6174
I1
aF3.0
asS'celebrity chef'
p6175
(lp6176
I2
aF10.0
asS'taste'
p6177
(lp6178
I6
aF24.0
asS'kadai paneer'
p6179
(lp6180
I2
aF9.0
asS'cocktails..'
p6181
(lp6182
I1
aF4.0
asS'kormangla'
p6183
(lp6184
I1
aF3.5
asS'tamarind foam'
p6185
(lp6186
I1
aF5.0
asS'sense'
p6187
(lp6188
I1
aF4.0
asS'punjabi food'
p6189
(lp6190
I2
aF9.0
asS'cuisine'
p6191
(lp6192
I2
aF10.0
asS'combination'
p6193
(lp6194
I2
aF10.0
asS'dishes'
p6195
(lp6196
I1
aF3.0
asS'fast delivery'
p6197
(lp6198
I1
aF4.0
asS'citrus'
p6199
(lp6200
I1
aF5.0
asS'biryani'
p6201
(lp6202
I2
aF9.5
asS'doors'
p6203
(lp6204
I1
aF4.0
asS'interior'
p6205
(lp6206
I1
aF3.5
asS'smokey spicy'
p6207
(lp6208
I1
aF5.0
asS'gravy'
p6209
(lp6210
I2
aF9.0
asS'elements'
p6211
(lp6212
I1
aF5.0
asS'ratings'
p6213
(lp6214
I3
aF12.5
asS'hit number kaala chasma\xf0\x9f\x98\x89'
p6215
(lp6216
I1
aF4.0
asS'buffet offers'
p6217
(lp6218
I1
aF3.5
asS'concoctions'
p6219
(lp6220
I1
aF4.0
asS'paneer tikka multani'
p6221
(lp6222
I2
aF9.0
asS'favorites'
p6223
(lp6224
I2
aF10.0
asS'cooking..'
p6225
(lp6226
I1
aF5.0
asS'celebratory'
p6227
(lp6228
I2
aF10.0
asS'spices'
p6229
(lp6230
I1
aF5.0
asS'tricks'
p6231
(lp6232
I1
aF4.5
asS'dessert..'
p6233
(lp6234
I1
aF4.0
asS'tooth'
p6235
(lp6236
I1
aF5.0
asS'punjab grill'
p6237
(lp6238
I4
aF17.0
asS'time'
p6239
(lp6240
I1
aF4.0
asS'occasion'
p6241
(lp6242
I2
aF10.0
asS'beetroot peanut tikki'
p6243
(lp6244
I1
aF5.0
asS'quantity'
p6245
(lp6246
I1
aF4.0
asS'order'
p6247
(lp6248
I1
aF4.5
asS'outlet'
p6249
(lp6250
I2
aF9.0
assS'51490'
p6251
(dp6252
S'rating'
p6253
(lp6254
I2
aF3.0
asS'time i'
p6255
(lp6256
I1
aF3.0
asS'minute walk'
p6257
(lp6258
I1
aF3.0
asS'money'
p6259
(lp6260
I1
aF1.5
asS'place worth'
p6261
(lp6262
I1
aF3.5
asS'lack'
p6263
(lp6264
I3
aF6.0
asS'people'
p6265
(lp6266
I1
aF1.0
asS'years'
p6267
(lp6268
I1
aF2.5
asS'desserts'
p6269
(lp6270
I1
aF3.0
asS'manager'
p6271
(lp6272
I3
aF5.5
asS'dish'
p6273
(lp6274
I1
aF1.5
asS'lassi'
p6275
(lp6276
I1
aF1.0
asS'milk'
p6277
(lp6278
I1
aF1.0
asS'menus.they'
p6279
(lp6280
I1
aF3.0
asS'staff'
p6281
(lp6282
I2
aF3.0
asS'tables'
p6283
(lp6284
I2
aF3.0
asS'style'
p6285
(lp6286
I1
aF2.5
asS'difference'
p6287
(lp6288
I1
aF2.5
asS'signal'
p6289
(lp6290
I1
aF2.5
asS'yesterday i'
p6291
(lp6292
I1
aF3.0
asS'menu'
p6293
(lp6294
I3
aF7.0
asS'rotis'
p6295
(lp6296
I4
aF8.0
asS'expectations'
p6297
(lp6298
I1
aF3.0
asS'improvement'
p6299
(lp6300
I1
aF1.5
asS'starters'
p6301
(lp6302
I1
aF1.0
asS'feel'
p6303
(lp6304
I1
aF2.0
asS'offers'
p6305
(lp6306
I1
aF2.5
asS'curds'
p6307
(lp6308
I1
aF1.0
asS'board'
p6309
(lp6310
I1
aF2.5
asS'pamphlet'
p6311
(lp6312
I1
aF2.5
asS'sarson ka saag'
p6313
(lp6314
I1
aF3.5
asS'phulkas'
p6315
(lp6316
I1
aF3.0
asS'daal'
p6317
(lp6318
I1
aF3.0
asS'daal baati thali'
p6319
(lp6320
I1
aF3.5
asS'panner'
p6321
(lp6322
I1
aF1.5
asS'food'
p6323
(lp6324
I14
aF28.5
asS'dessert'
p6325
(lp6326
I2
aF3.0
asS'\xf0\x9f\x98\x90'
p6327
(lp6328
I1
aF2.5
asS'tastless panner curry'
p6329
(lp6330
I1
aF1.0
asS'dal tadka'
p6331
(lp6332
I1
aF3.0
asS'spoon'
p6333
(lp6334
I1
aF1.0
asS'course'
p6335
(lp6336
I1
aF3.0
asS'bonda'
p6337
(lp6338
I1
aF1.0
asS'food.'
p6339
(lp6340
I1
aF1.0
asS'half'
p6341
(lp6342
I1
aF1.5
asS'u ask'
p6343
(lp6344
I1
aF2.5
asS'transparent'
p6345
(lp6346
I1
aF2.5
asS'place yesterday'
p6347
(lp6348
I1
aF3.5
asS'pulkas'
p6349
(lp6350
I1
aF1.0
asS'kesari bath'
p6351
(lp6352
I1
aF1.0
asS'buffet dinner'
p6353
(lp6354
I1
aF3.0
asS'time visit'
p6355
(lp6356
I1
aF2.5
asS'jira rice'
p6357
(lp6358
I1
aF1.0
asS'shock'
p6359
(lp6360
I2
aF3.0
asS'roti/kulcha'
p6361
(lp6362
I1
aF1.0
asS'server'
p6363
(lp6364
I1
aF2.5
asS'treat customers'
p6365
(lp6366
I1
aF1.5
asS'palak panner'
p6367
(lp6368
I1
aF1.5
asS'head spin'
p6369
(lp6370
I1
aF1.0
asS'mother tongues'
p6371
(lp6372
I2
aF3.0
asS'interiors'
p6373
(lp6374
I1
aF2.5
asS'health sake'
p6375
(lp6376
I1
aF1.0
asS'crowd'
p6377
(lp6378
I1
aF2.5
asS'burst'
p6379
(lp6380
I1
aF2.0
asS'ambiance'
p6381
(lp6382
I1
aF1.0
asS'bland'
p6383
(lp6384
I1
aF1.0
asS'banshankari'
p6385
(lp6386
I1
aF3.5
asS'stage.. food'
p6387
(lp6388
I1
aF3.5
asS'tomato soup'
p6389
(lp6390
I1
aF2.5
asS'expression'
p6391
(lp6392
I1
aF3.5
asS'salads'
p6393
(lp6394
I1
aF3.0
asS'folk'
p6395
(lp6396
I2
aF3.0
asS'creatures'
p6397
(lp6398
I2
aF3.0
asS'buffet lunch'
p6399
(lp6400
I1
aF3.0
asS'bias display'
p6401
(lp6402
I2
aF3.0
asS'rajasthani touch'
p6403
(lp6404
I1
aF1.0
asS'soup'
p6405
(lp6406
I1
aF2.5
asS'marathi'
p6407
(lp6408
I2
aF3.0
asS'please'
p6409
(lp6410
I1
aF2.5
asS'astonishment'
p6411
(lp6412
I1
aF2.5
asS'wouldnt'
p6413
(lp6414
I1
aF1.0
asS'contact details'
p6415
(lp6416
I1
aF2.5
asS'rajasthani fare'
p6417
(lp6418
I1
aF3.5
asS'drink'
p6419
(lp6420
I2
aF4.0
asS'rajasthani ambience'
p6421
(lp6422
I1
aF3.5
asS'notice'
p6423
(lp6424
I1
aF1.5
asS'noise'
p6425
(lp6426
I1
aF3.5
asS'terms'
p6427
(lp6428
I1
aF3.0
asS'buffee lunch'
p6429
(lp6430
I1
aF1.0
asS'desert quality'
p6431
(lp6432
I1
aF3.0
asS'corn'
p6433
(lp6434
I1
aF3.5
asS'bangaloreans'
p6435
(lp6436
I1
aF1.5
asS'hours'
p6437
(lp6438
I1
aF1.5
asS'step'
p6439
(lp6440
I1
aF1.0
asS'management'
p6441
(lp6442
I3
aF5.5
asS'restuarant'
p6443
(lp6444
I1
aF3.5
asS'bangalore'
p6445
(lp6446
I1
aF2.5
asS'stomach upset'
p6447
(lp6448
I1
aF1.0
asS'super'
p6449
(lp6450
I1
aF1.5
asS'sabzi tasteless'
p6451
(lp6452
I1
aF1.0
asS'piece'
p6453
(lp6454
I1
aF1.5
asS'language'
p6455
(lp6456
I1
aF1.5
asS'restaurant'
p6457
(lp6458
I12
aF26.5
asS'items'
p6459
(lp6460
I1
aF1.5
asS'home delivery'
p6461
(lp6462
I3
aF5.5
asS'courtesy'
p6463
(lp6464
I2
aF3.0
asS'experience'
p6465
(lp6466
I1
aF3.0
asS'dinner'
p6467
(lp6468
I2
aF4.0
asS'taste wise'
p6469
(lp6470
I1
aF1.0
asS'place'
p6471
(lp6472
I9
aF22.5
asS'weekday'
p6473
(lp6474
I1
aF3.0
asS'rs.280'
p6475
(lp6476
I1
aF1.0
asS'mistake'
p6477
(lp6478
I1
aF1.0
asS'curry'
p6479
(lp6480
I2
aF3.0
asS'stomach infection'
p6481
(lp6482
I1
aF1.0
asS'plain rice'
p6483
(lp6484
I1
aF1.0
asS'dine'
p6485
(lp6486
I1
aF3.5
asS'dont'
p6487
(lp6488
I1
aF2.5
asS'.after'
p6489
(lp6490
I1
aF1.0
asS'rajastani'
p6491
(lp6492
I1
aF2.5
asS'sweet'
p6493
(lp6494
I1
aF1.0
asS'veg pulao'
p6495
(lp6496
I1
aF1.5
asS'patience'
p6497
(lp6498
I2
aF3.0
asS'damn roti'
p6499
(lp6500
I2
aF3.0
asS'owner'
p6501
(lp6502
I1
aF2.5
asS'couldnt'
p6503
(lp6504
I1
aF2.5
asS'quality'
p6505
(lp6506
I1
aF2.0
asS'tadkaa'
p6507
(lp6508
I1
aF3.5
asS'ghee rice'
p6509
(lp6510
I1
aF3.0
asS'sambar'
p6511
(lp6512
I1
aF1.0
asS'service'
p6513
(lp6514
I4
aF11.0
asS'area'
p6515
(lp6516
I2
aF5.5
asS'la carte'
p6517
(lp6518
I1
aF1.0
asS'friends'
p6519
(lp6520
I3
aF6.0
asS'indians'
p6521
(lp6522
I2
aF3.0
asS'visit'
p6523
(lp6524
I1
aF1.0
asS'plastic'
p6525
(lp6526
I1
aF1.0
asS'hindi'
p6527
(lp6528
I2
aF3.0
asS'malai'
p6529
(lp6530
I1
aF2.5
asS'thali'
p6531
(lp6532
I1
aF2.5
asS'friend'
p6533
(lp6534
I2
aF3.0
asS'calm'
p6535
(lp6536
I1
aF3.5
asS'preparation'
p6537
(lp6538
I1
aF1.5
asS'spicy'
p6539
(lp6540
I1
aF3.5
asS'north'
p6541
(lp6542
I1
aF1.0
asS'malpua'
p6543
(lp6544
I1
aF3.0
asS'tasteless'
p6545
(lp6546
I1
aF2.5
asS'tikki'
p6547
(lp6548
I1
aF1.0
asS'linguistic/community discrimination'
p6549
(lp6550
I2
aF3.0
asS'impress'
p6551
(lp6552
I1
aF2.5
asS'paneer'
p6553
(lp6554
I1
aF3.5
asS'reason'
p6555
(lp6556
I1
aF2.5
asS'ambience'
p6557
(lp6558
I3
aF6.0
asS'lives'
p6559
(lp6560
I2
aF3.0
asS'prices'
p6561
(lp6562
I1
aF2.5
asS'insertions'
p6563
(lp6564
I1
aF2.5
asS'naans'
p6565
(lp6566
I1
aF1.5
asS'quality wise'
p6567
(lp6568
I1
aF2.5
asS'starter'
p6569
(lp6570
I1
aF3.0
asS'spice'
p6571
(lp6572
I1
aF1.5
asS'predicament'
p6573
(lp6574
I1
aF1.5
asS'price range'
p6575
(lp6576
I1
aF2.0
asS'rice'
p6577
(lp6578
I2
aF2.5
asS'wow.food'
p6579
(lp6580
I1
aF3.5
asS'veg pulav didnt'
p6581
(lp6582
I1
aF1.0
asS'civility'
p6583
(lp6584
I2
aF3.0
asS'reviews'
p6585
(lp6586
I1
aF1.5
asS'record'
p6587
(lp6588
I2
aF3.0
asS'while'
p6589
(lp6590
I1
aF3.5
asS'waiters'
p6591
(lp6592
I1
aF3.5
asS'stomach uneasiness'
p6593
(lp6594
I1
aF1.5
asS'newspaper'
p6595
(lp6596
I1
aF2.5
asS'balance'
p6597
(lp6598
I1
aF1.0
asS'minutes'
p6599
(lp6600
I2
aF3.0
asS'average'
p6601
(lp6602
I1
aF3.0
asS'restaurant hence i'
p6603
(lp6604
I1
aF1.0
asS'tadkaa.ambiance'
p6605
(lp6606
I1
aF1.0
asS'management whore'
p6607
(lp6608
I1
aF1.5
asS'taste'
p6609
(lp6610
I1
aF1.5
asS'mind'
p6611
(lp6612
I1
aF1.5
asS'kannada'
p6613
(lp6614
I2
aF3.0
asS'something'
p6615
(lp6616
I1
aF3.0
asS'home'
p6617
(lp6618
I1
aF3.0
asS'hara bara kebab'
p6619
(lp6620
I1
aF2.5
asS'fill'
p6621
(lp6622
I1
aF3.0
asS'information'
p6623
(lp6624
I1
aF2.5
asS'dishes'
p6625
(lp6626
I1
aF3.0
asS'variety'
p6627
(lp6628
I3
aF8.5
asS'acquaintances'
p6629
(lp6630
I1
aF2.5
asS'ice cream'
p6631
(lp6632
I1
aF1.0
asS'objective'
p6633
(lp6634
I1
aF2.5
asS'paneer butter masala'
p6635
(lp6636
I1
aF1.5
asS'incl'
p6637
(lp6638
I1
aF2.0
asS'disappointment'
p6639
(lp6640
I2
aF3.0
asS'gravy'
p6641
(lp6642
I2
aF4.5
asS'hotel'
p6643
(lp6644
I2
aF3.0
asS'okay'
p6645
(lp6646
I2
aF3.0
asS'price'
p6647
(lp6648
I3
aF7.0
asS'dry ..'
p6649
(lp6650
I1
aF3.5
asS'buffet'
p6651
(lp6652
I5
aF11.0
asS'delivery guy'
p6653
(lp6654
I1
aF1.5
asS'dominos'
p6655
(lp6656
I1
aF2.0
asS'tadka'
p6657
(lp6658
I2
aF5.5
asS'mouth'
p6659
(lp6660
I1
aF2.0
asS'plan'
p6661
(lp6662
I1
aF3.5
asS'nothing'
p6663
(lp6664
I3
aF5.5
asS'college n offices'
p6665
(lp6666
I1
aF1.0
asS'weekend'
p6667
(lp6668
I1
aF3.0
asS'meals'
p6669
(lp6670
I1
aF1.0
asS'types'
p6671
(lp6672
I1
aF3.5
asS'branches'
p6673
(lp6674
I1
aF2.5
asS'vade'
p6675
(lp6676
I1
aF1.0
asS'lunch'
p6677
(lp6678
I1
aF2.5
asS'soups'
p6679
(lp6680
I1
aF3.0
asS'mithai'
p6681
(lp6682
I1
aF3.5
asS'floor'
p6683
(lp6684
I1
aF2.5
asS'restaurant worth'
p6685
(lp6686
I1
aF1.0
asS'changeambience'
p6687
(lp6688
I1
aF3.5
asS'time'
p6689
(lp6690
I3
aF6.0
asS'pleasure'
p6691
(lp6692
I1
aF3.5
asS'breads'
p6693
(lp6694
I1
aF1.5
asS'salt'
p6695
(lp6696
I1
aF2.5
asS'order'
p6697
(lp6698
I1
aF1.5
asS'daal baati'
p6699
(lp6700
I1
aF2.0
asS'quantity'
p6701
(lp6702
I3
aF4.5
assS'58818'
p6703
(dp6704
S'rating'
p6705
(lp6706
I2
aF9.0
asS'morons'
p6707
(lp6708
I1
aF4.5
asS'concept'
p6709
(lp6710
I1
aF4.5
asS'gates'
p6711
(lp6712
I1
aF4.5
asS'melts'
p6713
(lp6714
I1
aF4.5
asS'visitor'
p6715
(lp6716
I1
aF4.5
asS'menu..you'
p6717
(lp6718
I1
aF3.5
asS'food stall.as'
p6719
(lp6720
I1
aF5.0
asS'icecreams'
p6721
(lp6722
I1
aF4.5
asS'\xf0\x9f\x98\x8dwhenever'
p6723
(lp6724
I1
aF4.5
asS'whats'
p6725
(lp6726
I1
aF3.5
asS'perfect'
p6727
(lp6728
I1
aF4.0
asS'mumbai'
p6729
(lp6730
I1
aF4.5
asS'front'
p6731
(lp6732
I1
aF4.5
asS'menu'
p6733
(lp6734
I2
aF8.5
asS'proportion'
p6735
(lp6736
I1
aF4.5
asS'sugar'
p6737
(lp6738
I1
aF4.5
asS'thay i'
p6739
(lp6740
I1
aF3.5
asS'ice cream laden waffles'
p6741
(lp6742
I1
aF4.0
asS'place i'
p6743
(lp6744
I1
aF4.5
asS'reason'
p6745
(lp6746
I1
aF4.5
asS'sorry'
p6747
(lp6748
I1
aF4.0
asS'presentation'
p6749
(lp6750
I1
aF5.0
asS'worth'
p6751
(lp6752
I1
aF5.0
asS'hope'
p6753
(lp6754
I2
aF9.5
asS'pumpkin'
p6755
(lp6756
I1
aF1.0
asS'city.made fresh'
p6757
(lp6758
I1
aF5.0
asS'combination'
p6759
(lp6760
I4
aF16.5
asS'food'
p6761
(lp6762
I1
aF4.0
asS'dessert'
p6763
(lp6764
I2
aF9.0
asS'stop'
p6765
(lp6766
I1
aF4.5
asS'ones'
p6767
(lp6768
I2
aF9.0
asS'traffic'
p6769
(lp6770
I1
aF4.0
asS'outlet'
p6771
(lp6772
I4
aF18.0
asS'indulge'
p6773
(lp6774
I1
aF5.0
asS'combinations'
p6775
(lp6776
I1
aF5.0
asS'chocolate chip'
p6777
(lp6778
I1
aF1.0
asS'areas'
p6779
(lp6780
I1
aF4.5
asS'maple syrup'
p6781
(lp6782
I1
aF3.0
asS'name'
p6783
(lp6784
I3
aF10.0
asS'chairs'
p6785
(lp6786
I1
aF5.0
asS'drop'
p6787
(lp6788
I1
aF4.5
asS'list'
p6789
(lp6790
I1
aF4.5
asS'wish'
p6791
(lp6792
I1
aF4.5
asS'hype'
p6793
(lp6794
I1
aF4.5
asS'meal'
p6795
(lp6796
I1
aF4.0
asS'enjoy'
p6797
(lp6798
I1
aF5.0
asS'pheonix mall'
p6799
(lp6800
I1
aF4.0
asS'questions'
p6801
(lp6802
I1
aF3.0
asS'people'
p6803
(lp6804
I6
aF26.0
asS'waffle'
p6805
(lp6806
I9
aF38.5
asS'hopping left'
p6807
(lp6808
I1
aF4.0
asS'ice cream'
p6809
(lp6810
I2
aF5.5
asS'food court'
p6811
(lp6812
I1
aF5.0
asS'weekdays'
p6813
(lp6814
I1
aF4.0
asS'space'
p6815
(lp6816
I1
aF4.5
asS'ways'
p6817
(lp6818
I1
aF3.5
asS'nut cracker'
p6819
(lp6820
I1
aF4.5
asS'nutella'
p6821
(lp6822
I2
aF9.5
asS'mall'
p6823
(lp6824
I1
aF4.0
asS'overload'
p6825
(lp6826
I1
aF4.5
asS'everything'
p6827
(lp6828
I2
aF8.0
asS'nutella waffle'
p6829
(lp6830
I1
aF4.5
asS'market'
p6831
(lp6832
I1
aF4.5
asS'belgyums'
p6833
(lp6834
I1
aF4.5
asS'shop/counter'
p6835
(lp6836
I1
aF4.0
asS'cream tastes'
p6837
(lp6838
I1
aF1.0
asS'customer service'
p6839
(lp6840
I1
aF4.5
asS'*********************************'
p6841
(lp6842
I1
aF3.0
asS'houses'
p6843
(lp6844
I1
aF4.5
asS'chocolate belge waffle'
p6845
(lp6846
I1
aF3.0
asS'others'
p6847
(lp6848
I1
aF5.0
asS'stomach'
p6849
(lp6850
I1
aF3.0
asS'bangalore'
p6851
(lp6852
I1
aF1.0
asS'raspberry'
p6853
(lp6854
I1
aF5.0
asS'waffle place'
p6855
(lp6856
I1
aF4.5
asS'comparison'
p6857
(lp6858
I1
aF3.0
asS'waffles i'
p6859
(lp6860
I1
aF4.5
asS'cafes'
p6861
(lp6862
I1
aF3.0
asS'lot number'
p6863
(lp6864
I1
aF4.5
asS'times'
p6865
(lp6866
I2
aF9.0
asS'ice cream rubs'
p6867
(lp6868
I1
aF4.0
asS'range'
p6869
(lp6870
I1
aF1.0
asS'toppings'
p6871
(lp6872
I6
aF23.0
asS'theres'
p6873
(lp6874
I1
aF5.0
asS'options'
p6875
(lp6876
I4
aF15.0
asS'peanut butter'
p6877
(lp6878
I1
aF1.0
asS'thats'
p6879
(lp6880
I1
aF4.0
asS'preparation delights'
p6881
(lp6882
I1
aF3.5
asS'love'
p6883
(lp6884
I2
aF9.0
asS'flats'
p6885
(lp6886
I1
aF4.5
asS'number'
p6887
(lp6888
I3
aF13.0
asS'creame'
p6889
(lp6890
I1
aF4.0
asS'right'
p6891
(lp6892
I1
aF4.0
asS'crispy'
p6893
(lp6894
I3
aF13.0
asS'sugar icing'
p6895
(lp6896
I1
aF4.0
asS'maple'
p6897
(lp6898
I2
aF9.5
asS'size'
p6899
(lp6900
I1
aF3.5
asS'flavors'
p6901
(lp6902
I2
aF9.0
asS'city'
p6903
(lp6904
I1
aF3.0
asS'15mins'
p6905
(lp6906
I1
aF3.0
asS'quality'
p6907
(lp6908
I1
aF4.0
asS'area'
p6909
(lp6910
I1
aF3.0
asS'spending'
p6911
(lp6912
I1
aF3.0
asS'friends'
p6913
(lp6914
I1
aF3.0
asS'visit'
p6915
(lp6916
I2
aF9.0
asS'shakes.kudos'
p6917
(lp6918
I1
aF4.5
asS'caramel sauce'
p6919
(lp6920
I1
aF4.5
asS'chocolate topping'
p6921
(lp6922
I1
aF4.5
asS'bypass route'
p6923
(lp6924
I1
aF4.0
asS'bits'
p6925
(lp6926
I1
aF4.5
asS'banana'
p6927
(lp6928
I2
aF8.5
asS'head'
p6929
(lp6930
I1
aF3.5
asS'mantri mall'
p6931
(lp6932
I1
aF5.0
asS'nutella waffles'
p6933
(lp6934
I2
aF4.5
asS'chocolate'
p6935
(lp6936
I3
aF10.5
asS'excuse'
p6937
(lp6938
I1
aF4.5
asS'fruits'
p6939
(lp6940
I2
aF10.0
asS'strawberry sauce'
p6941
(lp6942
I1
aF5.0
asS'prices'
p6943
(lp6944
I1
aF5.0
asS'nutcase'
p6945
(lp6946
I1
aF4.5
asS'matter'
p6947
(lp6948
I1
aF4.0
asS'town'
p6949
(lp6950
I2
aF7.5
asS'rush'
p6951
(lp6952
I1
aF5.0
asS'sauce'
p6953
(lp6954
I2
aF9.0
asS'value'
p6955
(lp6956
I1
aF1.0
asS'blueberry'
p6957
(lp6958
I1
aF5.0
asS'reviews'
p6959
(lp6960
I1
aF3.5
asS'strawberry'
p6961
(lp6962
I1
aF5.0
asS'while'
p6963
(lp6964
I1
aF4.0
asS'cravings'
p6965
(lp6966
I1
aF5.0
asS'lover'
p6967
(lp6968
I2
aF9.0
asS'malls'
p6969
(lp6970
I1
aF5.0
asS'chocolate spread'
p6971
(lp6972
I1
aF4.5
asS'lip smacking'
p6973
(lp6974
I1
aF4.0
asS'belgyum team'
p6975
(lp6976
I1
aF4.5
asS'vanilla ice cream'
p6977
(lp6978
I1
aF4.5
asS'money'
p6979
(lp6980
I1
aF1.0
asS'taste'
p6981
(lp6982
I3
aF11.5
asS'penny'
p6983
(lp6984
I1
aF3.0
asS'india'
p6985
(lp6986
I1
aF5.0
asS'briefs'
p6987
(lp6988
I1
aF4.5
asS'chocolate sauce'
p6989
(lp6990
I3
aF10.0
asS'orion'
p6991
(lp6992
I1
aF5.0
asS'waffles lovers'
p6993
(lp6994
I2
aF9.0
asS'salty'
p6995
(lp6996
I1
aF3.0
asS'shopping'
p6997
(lp6998
I1
aF4.0
asS'cream'
p6999
(lp7000
I5
aF21.0
asS'phoenix mall'
p7001
(lp7002
I2
aF10.0
asS'crunchy'
p7003
(lp7004
I1
aF5.0
asS'shirt'
p7005
(lp7006
I1
aF4.0
asS'belgyum'
p7007
(lp7008
I2
aF9.0
asS'winter surprise'
p7009
(lp7010
I1
aF5.0
asS'nuts'
p7011
(lp7012
I3
aF14.0
asS'waffles'
p7013
(lp7014
I21
aF84.0
asS'till'
p7015
(lp7016
I1
aF4.5
asS'sauces'
p7017
(lp7018
I2
aF8.5
asS'corridor'
p7019
(lp7020
I1
aF3.0
asS'test'
p7021
(lp7022
I1
aF4.0
asS'place'
p7023
(lp7024
I15
aF65.0
asS'fudge'
p7025
(lp7026
I1
aF4.0
asS'phoenix'
p7027
(lp7028
I3
aF12.0
asS'customize'
p7029
(lp7030
I1
aF3.5
asS'price'
p7031
(lp7032
I2
aF8.0
asS'time'
p7033
(lp7034
I5
aF22.0
asS'mouth'
p7035
(lp7036
I1
aF4.5
asS'visit phoenix'
p7037
(lp7038
I1
aF4.5
asS'brands'
p7039
(lp7040
I1
aF4.5
asS'weekend'
p7041
(lp7042
I1
aF4.5
asS'wife'
p7043
(lp7044
I1
aF4.0
asS'light'
p7045
(lp7046
I1
aF3.0
asS'powder sugar'
p7047
(lp7048
I1
aF5.0
asS'tooth'
p7049
(lp7050
I1
aF5.0
asS'lift'
p7051
(lp7052
I1
aF4.0
asS'road'
p7053
(lp7054
I1
aF4.5
asS'zomato rating system..'
p7055
(lp7056
I1
aF4.0
asS'toping'
p7057
(lp7058
I1
aF5.0
asS'ice creams'
p7059
(lp7060
I1
aF4.0
asS'dish z i plan'
p7061
(lp7062
I1
aF4.5
asS'talk'
p7063
(lp7064
I1
aF5.0
ass.